(dp0
S'219842206'
p1
S'NR_026541'
p2
sS'209862783'
p3
S'NR_024237'
p4
sS'530357632'
p5
S'XR_249111'
p6
sS'530357103'
p7
S'XR_248749'
p8
sS'530357108'
p9
S'XR_248752'
p10
sS'578794953'
p11
S'XR_249419'
p12
sS'578794952'
p13
S'XR_425603'
p14
sS'578794951'
p15
S'XR_425602'
p16
sS'578794957'
p17
S'XR_249424'
p18
sS'578794956'
p19
S'XR_425606'
p20
sS'578794955'
p21
S'XR_425605'
p22
sS'578794954'
p23
S'XR_425604'
p24
sS'578794959'
p25
S'XR_425608'
p26
sS'578794958'
p27
S'XR_425607'
p28
sS'530357618'
p29
S'XR_133296'
p30
sS'530357610'
p31
S'XM_001727011'
p32
sS'530357612'
p33
S'XR_249094'
p34
sS'530357614'
p35
S'XR_249096'
p36
sS'530357617'
p37
S'XR_249099'
p38
sS'530357616'
p39
S'XR_249098'
p40
sS'223941934'
p41
S'NR_026929'
p42
sS'578795059'
p43
S'XR_425678'
p44
sS'530358365'
p45
S'XR_112671'
p46
sS'530358366'
p47
S'XR_249659'
p48
sS'530358367'
p49
S'XR_249660'
p50
sS'47174756'
p51
S'NR_002144'
p52
sS'578794827'
p53
S'XR_425528'
p54
sS'578794826'
p55
S'XR_249302'
p56
sS'578794825'
p57
S'XR_425527'
p58
sS'578794824'
p59
S'XR_249296'
p60
sS'530357570'
p61
S'XM_005275915'
p62
sS'578794822'
p63
S'XR_425525'
p64
sS'530357572'
p65
S'XR_249066'
p66
sS'578794820'
p67
S'XR_249293'
p68
sS'578794829'
p69
S'XR_249304'
p70
sS'578794828'
p71
S'XR_425529'
p72
sS'530357773'
p73
S'XM_005275930'
p74
sS'530357771'
p75
S'XM_005275929'
p76
sS'578794508'
p77
S'XR_425083'
p78
sS'530357778'
p79
S'XM_005275932'
p80
sS'341914248'
p81
S'XR_133231'
p82
sS'578794509'
p83
S'XR_425084'
p84
sS'530358072'
p85
S'XR_249434'
p86
sS'578794840'
p87
S'XR_249313'
p88
sS'578794739'
p89
S'XR_425465'
p90
sS'578794738'
p91
S'XR_425464'
p92
sS'578794732'
p93
S'XR_425461'
p94
sS'578794731'
p95
S'XR_249191'
p96
sS'578794730'
p97
S'XR_425460'
p98
sS'578794737'
p99
S'XR_425463'
p100
sS'578794736'
p101
S'XR_249194'
p102
sS'578794735'
p103
S'XR_249195'
p104
sS'578794734'
p105
S'XR_425462'
p106
sS'530357978'
p107
S'XR_249367'
p108
sS'530357974'
p109
S'XR_249363'
p110
sS'530357976'
p111
S'XR_249365'
p112
sS'578794609'
p113
S'XR_425389'
p114
sS'578794608'
p115
S'XR_425388'
p116
sS'578794607'
p117
S'XR_249117'
p118
sS'578794606'
p119
S'XR_249116'
p120
sS'578794605'
p121
S'XR_249115'
p122
sS'530358381'
p123
S'XR_249674'
p124
sS'578794603'
p125
S'XR_425386'
p126
sS'157266267'
p127
S'NR_003713'
p128
sS'578794601'
p129
S'XR_425384'
p130
sS'578794600'
p131
S'XR_249104'
p132
sS'530357590'
p133
S'XR_249079'
p134
sS'530357597'
p135
S'XR_249084'
p136
sS'530357595'
p137
S'XR_112288'
p138
sS'310114340'
p139
S'XR_112452'
p140
sS'578794548'
p141
S'XR_248728'
p142
sS'578794549'
p143
S'XR_248730'
p144
sS'578794540'
p145
S'XM_003403715'
p146
sS'578794541'
p147
S'XR_425108'
p148
sS'578794542'
p149
S'XR_425109'
p150
sS'578794544'
p151
S'XR_425110'
p152
sS'578794546'
p153
S'XR_425112'
p154
sS'578794547'
p155
S'XR_425113'
p156
sS'578795011'
p157
S'XR_425639'
p158
sS'578795010'
p159
S'XR_425638'
p160
sS'530358032'
p161
S'XR_249403'
p162
sS'578795012'
p163
S'XR_425640'
p164
sS'578795015'
p165
S'XR_425643'
p166
sS'210147586'
p167
S'NR_015441'
p168
sS'578795017'
p169
S'XR_249480'
p170
sS'578795016'
p171
S'XR_249479'
p172
sS'578795019'
p173
S'XR_425645'
p174
sS'578795018'
p175
S'XR_425644'
p176
sS'578795125'
p177
S'XR_425722'
p178
sS'578795127'
p179
S'XR_249580'
p180
sS'578795126'
p181
S'XR_425723'
p182
sS'578795121'
p183
S'XR_425718'
p184
sS'578795120'
p185
S'XR_425717'
p186
sS'578795122'
p187
S'XR_425719'
p188
sS'373938422'
p189
S'NR_046102'
p190
sS'578795129'
p191
S'XR_425724'
p192
sS'578795128'
p193
S'XR_112629'
p194
sS'578794478'
p195
S'XR_425057'
p196
sS'578795239'
p197
S'XR_425793'
p198
sS'578795238'
p199
S'XR_425792'
p200
sS'578795231'
p201
S'XR_425787'
p202
sS'578795230'
p203
S'XR_425786'
p204
sS'578795232'
p205
S'XR_425788'
p206
sS'578795235'
p207
S'XR_425790'
p208
sS'578795234'
p209
S'XR_425789'
p210
sS'578795237'
p211
S'XR_425791'
p212
sS'578795236'
p213
S'XR_249684'
p214
sS'218505808'
p215
S'NR_015447'
p216
sS'578794571'
p217
S'XR_425359'
p218
sS'530357115'
p219
S'XM_005275876'
p220
sS'530357112'
p221
S'XR_112044'
p222
sS'530357110'
p223
S'XM_005275875'
p224
sS'311893296'
p225
S'NR_037182'
p226
sS'154759243'
p227
S'NR_003682'
p228
sS'530357119'
p229
S'XR_248757'
p230
sS'578794944'
p231
S'XR_425601'
p232
sS'578794945'
p233
S'XM_006710148'
p234
sS'578794947'
p235
S'XM_006710149'
p236
sS'578794940'
p237
S'XR_425597'
p238
sS'578794942'
p239
S'XR_425599'
p240
sS'578794943'
p241
S'XR_425600'
p242
sS'530357608'
p243
S'XM_005275918'
p244
sS'530357602'
p245
S'XR_249089'
p246
sS'530357600'
p247
S'XR_249087'
p248
sS'530357606'
p249
S'XR_249092'
p250
sS'578794838'
p251
S'XR_425535'
p252
sS'578794839'
p253
S'XR_425536'
p254
sS'578794830'
p255
S'XR_425530'
p256
sS'578794831'
p257
S'XM_006710141'
p258
sS'578794833'
p259
S'XR_249308'
p260
sS'578794834'
p261
S'XR_425531'
p262
sS'578794835'
p263
S'XR_425532'
p264
sS'578794836'
p265
S'XR_425533'
p266
sS'308081820'
p267
S'NR_036475'
p268
sS'223468703'
p269
S'NR_026806'
p270
sS'530357918'
p271
S'XR_112451'
p272
sS'530357749'
p273
S'XR_249192'
p274
sS'578794728'
p275
S'XR_425459'
p276
sS'578794729'
p277
S'XR_249190'
p278
sS'578794724'
p279
S'XR_249188'
p280
sS'578794725'
p281
S'XR_425456'
p282
sS'578794726'
p283
S'XR_425457'
p284
sS'578794727'
p285
S'XR_425458'
p286
sS'578794720'
p287
S'XR_425455'
p288
sS'578794721'
p289
S'XM_005275925'
p290
sS'578794722'
p291
S'XM_006710139'
p292
sS'530357909'
p293
S'XR_249318'
p294
sS'530357908'
p295
S'XR_249317'
p296
sS'530357907'
p297
S'XR_249316'
p298
sS'530357900'
p299
S'XR_249311'
p300
sS'299829288'
p301
S'NR_033871'
p302
sS'578794610'
p303
S'XR_425390'
p304
sS'578794611'
p305
S'XR_425391'
p306
sS'578794612'
p307
S'XR_425392'
p308
sS'578794613'
p309
S'XR_425393'
p310
sS'578794614'
p311
S'XR_425394'
p312
sS'578794615'
p313
S'XR_425395'
p314
sS'578794616'
p315
S'XR_425396'
p316
sS'578794617'
p317
S'XR_425397'
p318
sS'578794618'
p319
S'XR_425398'
p320
sS'578794619'
p321
S'XR_249127'
p322
sS'335057516'
p323
S'NR_038359'
p324
sS'578794539'
p325
S'XR_425107'
p326
sS'578794538'
p327
S'XR_425106'
p328
sS'578794535'
p329
S'XR_248709'
p330
sS'578794534'
p331
S'XR_425104'
p332
sS'578794537'
p333
S'XR_425105'
p334
sS'578794536'
p335
S'XR_248712'
p336
sS'578794531'
p337
S'XR_425101'
p338
sS'578794530'
p339
S'XR_425100'
p340
sS'578794533'
p341
S'XR_425103'
p342
sS'578794532'
p343
S'XR_425102'
p344
sS'578795002'
p345
S'XM_003403772'
p346
sS'228480224'
p347
S'NR_024409'
p348
sS'578795000'
p349
S'XM_006710152'
p350
sS'530358040'
p351
S'XR_249411'
p352
sS'578795004'
p353
S'XM_006710153'
p354
sS'578795008'
p355
S'XR_425636'
p356
sS'578795009'
p357
S'XR_425637'
p358
sS'539849146'
p359
S'NR_104170'
p360
sS'578794282'
p361
S'XM_006710073'
p362
sS'578794287'
p363
S'XR_425130'
p364
sS'578794285'
p365
S'XR_425128'
p366
sS'578794284'
p367
S'XR_425127'
p368
sS'578794289'
p369
S'XR_425132'
p370
sS'578794288'
p371
S'XR_425131'
p372
sS'578794441'
p373
S'XR_248615'
p374
sS'578794440'
p375
S'XR_425030'
p376
sS'578794443'
p377
S'XR_425032'
p378
sS'578794442'
p379
S'XR_425031'
p380
sS'578794445'
p381
S'XM_001715471'
p382
sS'578794444'
p383
S'XR_425033'
p384
sS'578794447'
p385
S'XR_425034'
p386
sS'578794449'
p387
S'XR_425036'
p388
sS'578794448'
p389
S'XR_425035'
p390
sS'578795136'
p391
S'XR_425729'
p392
sS'578795134'
p393
S'XR_425728'
p394
sS'578795135'
p395
S'XR_249588'
p396
sS'578795132'
p397
S'XR_425726'
p398
sS'578795133'
p399
S'XR_425727'
p400
sS'578795130'
p401
S'XR_249581'
p402
sS'578795131'
p403
S'XR_425725'
p404
sS'339275857'
p405
S'NR_040117'
p406
sS'578795138'
p407
S'XR_425730'
p408
sS'559098524'
p409
S'NR_104673'
p410
sS'305632792'
p411
S'NM_001195272'
p412
sS'578795228'
p413
S'XM_005275963'
p414
sS'578795229'
p415
S'XR_249680'
p416
sS'578795222'
p417
S'XR_249670'
p418
sS'22546031'
p419
S'NR_000026'
p420
sS'578795220'
p421
S'XR_425780'
p422
sS'578795221'
p423
S'XR_425781'
p424
sS'578795226'
p425
S'XR_425785'
p426
sS'578795227'
p427
S'XR_249677'
p428
sS'578795224'
p429
S'XR_425783'
p430
sS'578795225'
p431
S'XR_425784'
p432
sS'310114108'
p433
S'XR_112294'
p434
sS'578794488'
p435
S'XR_248655'
p436
sS'578794268'
p437
S'XR_425123'
p438
sS'578794267'
p439
S'XR_425122'
p440
sS'530357122'
p441
S'XR_248760'
p442
sS'223890249'
p443
S'NR_026900'
p444
sS'336455057'
p445
S'NR_038877'
p446
sS'530357634'
p447
S'XR_159383'
p448
sS'157412239'
p449
S'NM_001101330'
p450
sS'530357630'
p451
S'XR_249109'
p452
sS'578794849'
p453
S'XR_425543'
p454
sS'578794848'
p455
S'XR_425542'
p456
sS'578794845'
p457
S'XR_425539'
p458
sS'578794844'
p459
S'XR_249315'
p460
sS'578794847'
p461
S'XR_425541'
p462
sS'578794846'
p463
S'XR_425540'
p464
sS'578794841'
p465
S'XR_249314'
p466
sS'117938298'
p467
S'NM_001077637'
p468
sS'578794842'
p469
S'XR_425537'
p470
sS'530357758'
p471
S'XM_005275927'
p472
sS'530357750'
p473
S'XM_005275926'
p474
sS'211971077'
p475
S'NR_024389'
p476
sS'530357755'
p477
S'XR_249196'
p478
sS'530357757'
p479
S'XR_112377'
p480
sS'318065125'
p481
S'NR_037701'
p482
sS'42789379'
p483
S'NM_016275'
p484
sS'224465245'
p485
S'NR_027086'
p486
sS'578794999'
p487
S'XR_425634'
p488
sS'530357919'
p489
S'XR_249323'
p490
sS'578794996'
p491
S'XR_425633'
p492
sS'578794995'
p493
S'XR_425632'
p494
sS'578794994'
p495
S'XR_249467'
p496
sS'578794993'
p497
S'XR_425631'
p498
sS'578794992'
p499
S'XR_425630'
p500
sS'530357910'
p501
S'XR_249319'
p502
sS'578794990'
p503
S'XR_425628'
p504
sS'530358361'
p505
S'XR_249655'
p506
sS'578794664'
p507
S'XM_006710129'
p508
sS'578794666'
p509
S'XM_006710130'
p510
sS'578794660'
p511
S'XM_006710128'
p512
sS'578794663'
p513
S'XM_005275922'
p514
sS'578794662'
p515
S'XR_425424'
p516
sS'578794668'
p517
S'XM_006710131'
p518
sS'530358405'
p519
S'XR_249693'
p520
sS'530358407'
p521
S'XR_112700'
p522
sS'530358406'
p523
S'XR_249694'
p524
sS'530358401'
p525
S'XR_249689'
p526
sS'578794528'
p527
S'XR_425098'
p528
sS'578794529'
p529
S'XR_425099'
p530
sS'578794527'
p531
S'XR_425097'
p532
sS'578794523'
p533
S'XR_425095'
p534
sS'578795037'
p535
S'XR_425660'
p536
sS'578795036'
p537
S'XR_425659'
p538
sS'578795035'
p539
S'XR_425658'
p540
sS'578795033'
p541
S'XR_425656'
p542
sS'578795031'
p543
S'XR_425654'
p544
sS'578795030'
p545
S'XR_425653'
p546
sS'578795039'
p547
S'XR_425662'
p548
sS'578795038'
p549
S'XR_425661'
p550
sS'530358117'
p551
S'XR_249468'
p552
sS'578794823'
p553
S'XR_425526'
p554
sS'530358115'
p555
S'XR_249466'
p556
sS'310114251'
p557
S'XR_112396'
p558
sS'578794294'
p559
S'XR_425135'
p560
sS'578794295'
p561
S'XR_425136'
p562
sS'578794296'
p563
S'XR_425137'
p564
sS'578794297'
p565
S'XR_425138'
p566
sS'578794290'
p567
S'XR_425133'
p568
sS'530358058'
p569
S'XR_249421'
p570
sS'578794292'
p571
S'XR_248763'
p572
sS'578794293'
p573
S'XR_425134'
p574
sS'578794298'
p575
S'XR_425139'
p576
sS'578794299'
p577
S'XR_425140'
p578
sS'578794452'
p579
S'XR_425038'
p580
sS'578794453'
p581
S'XR_425039'
p582
sS'578794450'
p583
S'XR_425037'
p584
sS'578795108'
p585
S'XR_425707'
p586
sS'578794456'
p587
S'XR_425041'
p588
sS'578794457'
p589
S'XR_425042'
p590
sS'578794454'
p591
S'XR_425040'
p592
sS'578794455'
p593
S'XM_005275863'
p594
sS'578795103'
p595
S'XR_425703'
p596
sS'578795102'
p597
S'XR_249560'
p598
sS'578795101'
p599
S'XR_425702'
p600
sS'578794459'
p601
S'XR_425044'
p602
sS'578795107'
p603
S'XR_425706'
p604
sS'578795106'
p605
S'XR_425705'
p606
sS'578795105'
p607
S'XR_425704'
p608
sS'211938459'
p609
S'NR_024374'
p610
sS'333360892'
p611
S'NM_001207030'
p612
sS'310114631'
p613
S'XR_112646'
p614
sS'578795219'
p615
S'XR_425779'
p616
sS'578795217'
p617
S'XR_425778'
p618
sS'578795216'
p619
S'XR_425777'
p620
sS'578795215'
p621
S'XR_425776'
p622
sS'578795214'
p623
S'XR_425775'
p624
sS'578795213'
p625
S'XR_425774'
p626
sS'578795212'
p627
S'XR_425773'
p628
sS'578795211'
p629
S'XR_249656'
p630
sS'578795210'
p631
S'XR_425772'
p632
sS'148225708'
p633
S'NR_003539'
p634
sS'578794273'
p635
S'XR_425124'
p636
sS'578794276'
p637
S'XR_425126'
p638
sS'578794277'
p639
S'XR_248750'
p640
sS'578794274'
p641
S'XR_425125'
p642
sS'578794275'
p643
S'XR_248748'
p644
sS'213688368'
p645
S'NR_024492'
p646
sS'223941851'
p647
S'NR_026913'
p648
sS'530357133'
p649
S'XM_005275879'
p650
sS'578795007'
p651
S'XR_425635'
p652
sS'530357981'
p653
S'XR_249370'
p654
sS'530357620'
p655
S'XR_249101'
p656
sS'530357621'
p657
S'XR_249102'
p658
sS'530357623'
p659
S'XR_112304'
p660
sS'530357626'
p661
S'XR_249105'
p662
sS'530357627'
p663
S'XR_249106'
p664
sS'530357628'
p665
S'XR_249107'
p666
sS'530357629'
p667
S'XR_249108'
p668
sS'578794856'
p669
S'XM_006710142'
p670
sS'578794854'
p671
S'XR_425546'
p672
sS'578794855'
p673
S'XR_425547'
p674
sS'578794852'
p675
S'XR_249321'
p676
sS'578794853'
p677
S'XR_425545'
p678
sS'578794850'
p679
S'XR_425544'
p680
sS'578794851'
p681
S'XR_249320'
p682
sS'578794451'
p683
S'XR_248629'
p684
sS'530357725'
p685
S'XR_249175'
p686
sS'530357727'
p687
S'XR_249177'
p688
sS'530357721'
p689
S'XR_133305'
p690
sS'211938451'
p691
S'NR_024372'
p692
sS'578794458'
p693
S'XR_425043'
p694
sS'530358281'
p695
S'XR_249587'
p696
sS'530358286'
p697
S'XM_005275960'
p698
sS'530358289'
p699
S'XR_249592'
p700
sS'578795104'
p701
S'XR_249566'
p702
sS'530357923'
p703
S'XR_249324'
p704
sS'530357922'
p705
S'XM_003403761'
p706
sS'578794982'
p707
S'XR_425620'
p708
sS'578794983'
p709
S'XR_425621'
p710
sS'578794984'
p711
S'XR_425622'
p712
sS'530357926'
p713
S'XR_249327'
p714
sS'530357925'
p715
S'XR_249326'
p716
sS'530357924'
p717
S'XR_249325'
p718
sS'578794988'
p719
S'XR_425626'
p720
sS'578794989'
p721
S'XR_425627'
p722
sS'300796389'
p723
S'NR_034152'
p724
sS'221219005'
p725
S'NR_026659'
p726
sS'530358197'
p727
S'XR_112580'
p728
sS'530358191'
p729
S'XR_249526'
p730
sS'578794676'
p731
S'XR_425426'
p732
sS'578794677'
p733
S'XR_425427'
p734
sS'578794674'
p735
S'XM_003403755'
p736
sS'578794675'
p737
S'XR_425425'
p738
sS'578794672'
p739
S'XM_006710133'
p740
sS'310114136'
p741
S'XR_112312'
p742
sS'578794670'
p743
S'XM_006710132'
p744
sS'578794678'
p745
S'XR_425428'
p746
sS'578794679'
p747
S'XR_425429'
p748
sS'578795028'
p749
S'XM_006710154'
p750
sS'578794512'
p751
S'XR_425087'
p752
sS'578794511'
p753
S'XR_425086'
p754
sS'578794510'
p755
S'XR_425085'
p756
sS'578794516'
p757
S'XR_425089'
p758
sS'578794515'
p759
S'XR_425088'
p760
sS'578794514'
p761
S'XR_248688'
p762
sS'578795020'
p763
S'XR_425646'
p764
sS'578795021'
p765
S'XR_425647'
p766
sS'578794519'
p767
S'XR_425091'
p768
sS'578794518'
p769
S'XR_248692'
p770
sS'578795024'
p771
S'XR_425650'
p772
sS'578795025'
p773
S'XR_249485'
p774
sS'530358065'
p775
S'XR_112513'
p776
sS'578795027'
p777
S'XR_425652'
p778
sS'530358269'
p779
S'XR_249575'
p780
sS'530358262'
p781
S'XR_249568'
p782
sS'530357873'
p783
S'XR_249286'
p784
sS'337299699'
p785
S'NR_038958'
p786
sS'256355083'
p787
S'NR_015433'
p788
sS'578794464'
p789
S'XR_425049'
p790
sS'578794463'
p791
S'XR_425048'
p792
sS'578794462'
p793
S'XR_425047'
p794
sS'578794461'
p795
S'XR_425046'
p796
sS'578794460'
p797
S'XR_425045'
p798
sS'578795114'
p799
S'XR_425711'
p800
sS'578795115'
p801
S'XR_425712'
p802
sS'578795116'
p803
S'XR_425713'
p804
sS'578795117'
p805
S'XR_425714'
p806
sS'578795110'
p807
S'XR_425709'
p808
sS'578795111'
p809
S'XR_249570'
p810
sS'578794469'
p811
S'XR_248639'
p812
sS'578795113'
p813
S'XR_425710'
p814
sS'336088670'
p815
S'NR_038424'
p816
sS'537544664'
p817
S'NR_026901'
p818
sS'383792162'
p819
S'NR_047550'
p820
sS'578795200'
p821
S'XR_425764'
p822
sS'578795201'
p823
S'XR_249647'
p824
sS'578795202'
p825
S'XR_425765'
p826
sS'578795203'
p827
S'XR_425766'
p828
sS'578795204'
p829
S'XR_425767'
p830
sS'578795205'
p831
S'XR_425768'
p832
sS'578795206'
p833
S'XR_425769'
p834
sS'578795207'
p835
S'XR_425770'
p836
sS'578795208'
p837
S'XR_425771'
p838
sS'578795209'
p839
S'XR_249654'
p840
sS'578794249'
p841
S'XR_425019'
p842
sS'578794248'
p843
S'XR_425018'
p844
sS'578794247'
p845
S'XR_425017'
p846
sS'578794246'
p847
S'XR_248609'
p848
sS'578794244'
p849
S'XR_425015'
p850
sS'300388191'
p851
S'NR_034062'
p852
sS'578794242'
p853
S'XR_425223'
p854
sS'578794241'
p855
S'XR_159346'
p856
sS'336455103'
p857
S'NR_038891'
p858
sS'212720746'
p859
S'NR_024444'
p860
sS'32880228'
p861
S'NM_031454'
p862
sS'214830808'
p863
S'NR_024523'
p864
sS'530357657'
p865
S'XR_249133'
p866
sS'530357652'
p867
S'XR_249129'
p868
sS'578794863'
p869
S'XR_249328'
p870
sS'578794862'
p871
S'XR_425548'
p872
sS'215272311'
p873
S'NR_002826'
p874
sS'578794867'
p875
S'XR_425550'
p876
sS'578794866'
p877
S'XR_249332'
p878
sS'578794865'
p879
S'XR_425549'
p880
sS'578794864'
p881
S'XM_005275937'
p882
sS'578794868'
p883
S'XM_006710145'
p884
sS'578794602'
p885
S'XR_425385'
p886
sS'530357738'
p887
S'XR_112370'
p888
sS'530357736'
p889
S'XR_249185'
p890
sS'530357735'
p891
S'XM_003846653'
p892
sS'530357731'
p893
S'XR_249181'
p894
sS'226054055'
p895
S'NR_027442'
p896
sS'213385260'
p897
S'NR_024456'
p898
sS'530358294'
p899
S'XR_249597'
p900
sS'530358296'
p901
S'XR_249599'
p902
sS'530358290'
p903
S'XR_249593'
p904
sS'530358293'
p905
S'XR_249596'
p906
sS'530358299'
p907
S'XM_005275961'
p908
sS'530357934'
p909
S'XM_005275938'
p910
sS'256017146'
p911
S'NR_028328'
p912
sS'530358189'
p913
S'XR_112571'
p914
sS'337299048'
p915
S'NM_001242750'
p916
sS'530358181'
p917
S'XR_249518'
p918
sS'310923205'
p919
S'NR_027142'
p920
sS'530358187'
p921
S'XR_249524'
p922
sS'578794649'
p923
S'XR_249159'
p924
sS'578794648'
p925
S'XR_425417'
p926
sS'578794643'
p927
S'XR_249150'
p928
sS'578794642'
p929
S'XR_249149'
p930
sS'578794640'
p931
S'XR_425412'
p932
sS'578794647'
p933
S'XR_425416'
p934
sS'578794646'
p935
S'XR_425415'
p936
sS'578794645'
p937
S'XR_425414'
p938
sS'578794644'
p939
S'XR_425413'
p940
sS'578794889'
p941
S'XR_249364'
p942
sS'578794888'
p943
S'XR_425561'
p944
sS'578794881'
p945
S'XR_425556'
p946
sS'578794880'
p947
S'XR_425555'
p948
sS'578794883'
p949
S'XR_425558'
p950
sS'578794882'
p951
S'XR_425557'
p952
sS'578794885'
p953
S'XR_249353'
p954
sS'578794884'
p955
S'XR_249352'
p956
sS'578794887'
p957
S'XR_425560'
p958
sS'578794886'
p959
S'XR_425559'
p960
sS'302699227'
p961
S'NR_036530'
p962
sS'578794504'
p963
S'XR_425079'
p964
sS'578794505'
p965
S'XR_425080'
p966
sS'578794506'
p967
S'XR_425081'
p968
sS'578794507'
p969
S'XR_425082'
p970
sS'578794500'
p971
S'XR_425075'
p972
sS'578794501'
p973
S'XR_425076'
p974
sS'578794502'
p975
S'XR_248673'
p976
sS'578794503'
p977
S'XR_425077'
p978
sS'578795055'
p979
S'XR_425674'
p980
sS'530358075'
p981
S'XM_003846668'
p982
sS'578795057'
p983
S'XR_425676'
p984
sS'530358077'
p985
S'XM_005275949'
p986
sS'530358070'
p987
S'XR_249432'
p988
sS'530358071'
p989
S'XR_249433'
p990
sS'578795053'
p991
S'XR_425673'
p992
sS'530358278'
p993
S'XR_249584'
p994
sS'530358271'
p995
S'XR_249577'
p996
sS'563318536'
p997
S'NR_106788'
p998
sS'373838762'
p999
S'NR_046098'
p1000
sS'578794479'
p1001
S'XR_425058'
p1002
sS'578794470'
p1003
S'XR_425050'
p1004
sS'578794471'
p1005
S'XR_425051'
p1006
sS'578794472'
p1007
S'XR_425052'
p1008
sS'578794473'
p1009
S'XR_425053'
p1010
sS'578794474'
p1011
S'XR_425054'
p1012
sS'578794475'
p1013
S'XR_248643'
p1014
sS'578794476'
p1015
S'XR_425055'
p1016
sS'578794477'
p1017
S'XR_425056'
p1018
sS'212276331'
p1019
S'NR_024413'
p1020
sS'578795013'
p1021
S'XR_425641'
p1022
sS'578795014'
p1023
S'XR_425642'
p1024
sS'530358037'
p1025
S'XR_249408'
p1026
sS'530358038'
p1027
S'XR_249409'
p1028
sS'336595103'
p1029
S'NR_038942'
p1030
sS'578794250'
p1031
S'XR_425020'
p1032
sS'578794251'
p1033
S'XM_006710061'
p1034
sS'578794253'
p1035
S'XM_006710062'
p1036
sS'374429561'
p1037
S'NR_046240'
p1038
sS'578794255'
p1039
S'XR_425021'
p1040
sS'578794256'
p1041
S'XR_425022'
p1042
sS'578794257'
p1043
S'XR_425023'
p1044
sS'226423898'
p1045
S'NR_027471'
p1046
sS'530357646'
p1047
S'XR_249124'
p1048
sS'530357644'
p1049
S'XR_249122'
p1050
sS'530357642'
p1051
S'XR_249120'
p1052
sS'530357640'
p1053
S'XR_249118'
p1054
sS'530357648'
p1055
S'XR_249126'
p1056
sS'530357649'
p1057
S'XR_112323'
p1058
sS'578795112'
p1059
S'XR_249572'
p1060
sS'354459364'
p1061
S'NR_045375'
p1062
sS'338797695'
p1063
S'NM_001004352'
p1064
sS'578794874'
p1065
S'XR_249333'
p1066
sS'578794875'
p1067
S'XR_249341'
p1068
sS'578794876'
p1069
S'XR_249342'
p1070
sS'578794877'
p1071
S'XR_425552'
p1072
sS'578794870'
p1073
S'XM_006710146'
p1074
sS'578794872'
p1075
S'XR_425551'
p1076
sS'578794873'
p1077
S'XM_005275940'
p1078
sS'578794878'
p1079
S'XR_425553'
p1080
sS'578794879'
p1081
S'XR_425554'
p1082
sS'211971086'
p1083
S'NR_015421'
p1084
sS'530357705'
p1085
S'XR_249166'
p1086
sS'530357708'
p1087
S'XR_249169'
p1088
sS'518836396'
p1089
S'NR_103794'
p1090
sS'217272881'
p1091
S'NR_024569'
p1092
sS'578795054'
p1093
S'XR_249527'
p1094
sS'578794658'
p1095
S'XR_425422'
p1096
sS'578794659'
p1097
S'XR_425423'
p1098
sS'578794654'
p1099
S'XR_249164'
p1100
sS'578794655'
p1101
S'XR_425420'
p1102
sS'578794656'
p1103
S'XR_249167'
p1104
sS'540344510'
p1105
S'NM_001282442'
p1106
sS'578794650'
p1107
S'XR_425418'
p1108
sS'578794651'
p1109
S'XR_425419'
p1110
sS'578794652'
p1111
S'XM_006710127'
p1112
sS'578795249'
p1113
S'XR_425803'
p1114
sS'578794898'
p1115
S'XR_425569'
p1116
sS'578794899'
p1117
S'XR_425570'
p1118
sS'578794892'
p1119
S'XR_425564'
p1120
sS'578794893'
p1121
S'XR_425565'
p1122
sS'578794890'
p1123
S'XR_425562'
p1124
sS'578794891'
p1125
S'XR_425563'
p1126
sS'578794896'
p1127
S'XR_425568'
p1128
sS'578794897'
p1129
S'XR_249375'
p1130
sS'578794894'
p1131
S'XR_425566'
p1132
sS'578794895'
p1133
S'XR_425567'
p1134
sS'530357899'
p1135
S'XR_249310'
p1136
sS'530357898'
p1137
S'XR_112442'
p1138
sS'530357893'
p1139
S'XR_249305'
p1140
sS'530357894'
p1141
S'XR_249306'
p1142
sS'324073531'
p1143
S'NM_177422'
p1144
sS'530358083'
p1145
S'XR_249439'
p1146
sS'530358082'
p1147
S'XR_249438'
p1148
sS'578795242'
p1149
S'XR_425796'
p1150
sS'578795049'
p1151
S'XR_425671'
p1152
sS'530358088'
p1153
S'XR_249444'
p1154
sS'578795044'
p1155
S'XR_425666'
p1156
sS'578795045'
p1157
S'XR_425667'
p1158
sS'578795042'
p1159
S'XR_425664'
p1160
sS'578795040'
p1161
S'XR_249509'
p1162
sS'578795041'
p1163
S'XR_425663'
p1164
sS'578794657'
p1165
S'XR_425421'
p1166
sS'578795109'
p1167
S'XR_425708'
p1168
sS'310114203'
p1169
S'XR_112363'
p1170
sS'578794409'
p1171
S'XR_248879'
p1172
sS'578794408'
p1173
S'XR_425222'
p1174
sS'578794405'
p1175
S'XR_425219'
p1176
sS'578794404'
p1177
S'XR_425218'
p1178
sS'578794407'
p1179
S'XR_425221'
p1180
sS'578794406'
p1181
S'XR_425220'
p1182
sS'578794401'
p1183
S'XR_425215'
p1184
sS'578794400'
p1185
S'XR_425214'
p1186
sS'578794403'
p1187
S'XR_425217'
p1188
sS'578794402'
p1189
S'XR_425216'
p1190
sS'380036031'
p1191
S'NR_024443'
p1192
sS'578794311'
p1193
S'XR_425151'
p1194
sS'578794315'
p1195
S'XR_248785'
p1196
sS'578794314'
p1197
S'XR_425152'
p1198
sS'578794317'
p1199
S'XR_425153'
p1200
sS'578794319'
p1201
S'XR_425155'
p1202
sS'578794318'
p1203
S'XR_425154'
p1204
sS'530357093'
p1205
S'XR_248745'
p1206
sS'530357092'
p1207
S'XR_248744'
p1208
sS'530357091'
p1209
S'XR_248743'
p1210
sS'530357090'
p1211
S'XR_248742'
p1212
sS'530357095'
p1213
S'XR_248747'
p1214
sS'530357094'
p1215
S'XR_248746'
p1216
sS'578795243'
p1217
S'XR_425797'
p1218
sS'530357253'
p1219
S'XR_248857'
p1220
sS'530357252'
p1221
S'XR_248856'
p1222
sS'530357255'
p1223
S'XR_248859'
p1224
sS'530357257'
p1225
S'XR_248861'
p1226
sS'335353789'
p1227
S'NR_038379'
p1228
sS'218156283'
p1229
S'NR_024594'
p1230
sS'223941865'
p1231
S'NR_026914'
p1232
sS'530357678'
p1233
S'XR_249148'
p1234
sS'530357673'
p1235
S'XR_249144'
p1236
sS'530357672'
p1237
S'XR_249143'
p1238
sS'530357671'
p1239
S'XR_249142'
p1240
sS'530357675'
p1241
S'XR_249146'
p1242
sS'530357078'
p1243
S'XR_112023'
p1244
sS'530357071'
p1245
S'XR_248727'
p1246
sS'530357075'
p1247
S'XR_248731'
p1248
sS'530358084'
p1249
S'XR_249440'
p1250
sS'530357714'
p1251
S'XR_249170'
p1252
sS'578795047'
p1253
S'XR_425669'
p1254
sS'530357718'
p1255
S'XR_133304'
p1256
sS'530356973'
p1257
S'XR_248645'
p1258
sS'578794799'
p1259
S'XR_249277'
p1260
sS'578794798'
p1261
S'XR_249275'
p1262
sS'530356972'
p1263
S'XR_248644'
p1264
sS'578794795'
p1265
S'XR_425508'
p1266
sS'578794794'
p1267
S'XR_425507'
p1268
sS'578794797'
p1269
S'XR_249276'
p1270
sS'578794796'
p1271
S'XR_425509'
p1272
sS'578794791'
p1273
S'XR_425505'
p1274
sS'578794790'
p1275
S'XR_425504'
p1276
sS'578794793'
p1277
S'XR_249257'
p1278
sS'578794792'
p1279
S'XR_425506'
p1280
sS'530356975'
p1281
S'XR_248647'
p1282
sS'578794622'
p1283
S'XR_425399'
p1284
sS'530358169'
p1285
S'XR_249507'
p1286
sS'530357889'
p1287
S'XR_249301'
p1288
sS'530357885'
p1289
S'XR_249297'
p1290
sS'530357886'
p1291
S'XR_249298'
p1292
sS'530357887'
p1293
S'XR_249299'
p1294
sS'530357882'
p1295
S'XR_249295'
p1296
sS'530357883'
p1297
S'XR_112436'
p1298
sS'578795073'
p1299
S'XR_112596'
p1300
sS'578795072'
p1301
S'XR_249546'
p1302
sS'578795071'
p1303
S'XM_005275951'
p1304
sS'578795070'
p1305
S'XR_425688'
p1306
sS'578795077'
p1307
S'XM_005275953'
p1308
sS'578795075'
p1309
S'XM_006710155'
p1310
sS'578795074'
p1311
S'XR_425689'
p1312
sS'578795079'
p1313
S'XR_425690'
p1314
sS'578795078'
p1315
S'XM_005275954'
p1316
sS'530358253'
p1317
S'XR_249563'
p1318
sS'530358258'
p1319
S'XR_249565'
p1320
sS'530358259'
p1321
S'XR_112616'
p1322
sS'578794418'
p1323
S'XM_006710081'
p1324
sS'578794416'
p1325
S'XM_006710080'
p1326
sS'578794414'
p1327
S'XM_006710079'
p1328
sS'578794412'
p1329
S'XM_006710078'
p1330
sS'578794410'
p1331
S'XM_006710077'
p1332
sS'333360917'
p1333
S'NM_001207043'
p1334
sS'310114503'
p1335
S'XR_112557'
p1336
sS'209977058'
p1337
S'NR_024264'
p1338
sS'310114698'
p1339
S'XR_112694'
p1340
sS'578794302'
p1341
S'XR_425143'
p1342
sS'578794303'
p1343
S'XR_248771'
p1344
sS'578794300'
p1345
S'XR_425141'
p1346
sS'578794301'
p1347
S'XR_425142'
p1348
sS'578794306'
p1349
S'XR_425146'
p1350
sS'578794307'
p1351
S'XR_425147'
p1352
sS'578794304'
p1353
S'XR_425144'
p1354
sS'578794305'
p1355
S'XR_425145'
p1356
sS'578794308'
p1357
S'XR_425148'
p1358
sS'578794309'
p1359
S'XR_425149'
p1360
sS'218931218'
p1361
S'NR_024618'
p1362
sS'578795099'
p1363
S'XM_006710157'
p1364
sS'578795091'
p1365
S'XM_005275956'
p1366
sS'578795090'
p1367
S'XR_249557'
p1368
sS'578795093'
p1369
S'XR_249558'
p1370
sS'578795092'
p1371
S'XM_005275957'
p1372
sS'578795095'
p1373
S'XR_425700'
p1374
sS'578795094'
p1375
S'XR_425699'
p1376
sS'578795096'
p1377
S'XR_425701'
p1378
sS'530357084'
p1379
S'XR_248739'
p1380
sS'530357087'
p1381
S'XR_248740'
p1382
sS'530357082'
p1383
S'XR_248737'
p1384
sS'530357088'
p1385
S'XR_248741'
p1386
sS'530357246'
p1387
S'XR_248850'
p1388
sS'530357249'
p1389
S'XR_248853'
p1390
sS'336285246'
p1391
S'NR_038454'
p1392
sS'410170131'
p1393
S'XM_003960925'
p1394
sS'578794237'
p1395
S'XR_112078'
p1396
sS'578794238'
p1397
S'XR_425178'
p1398
sS'578794239'
p1399
S'XM_006710074'
p1400
sS'578794561'
p1401
S'XR_249069'
p1402
sS'304376267'
p1403
S'NR_036557'
p1404
sS'284005210'
p1405
S'NR_033245'
p1406
sS'530357665'
p1407
S'XR_249137'
p1408
sS'530357666'
p1409
S'XR_249138'
p1410
sS'530357660'
p1411
S'XM_003846648'
p1412
sS'530357068'
p1413
S'XR_248724'
p1414
sS'530357060'
p1415
S'XR_248718'
p1416
sS'530357061'
p1417
S'XR_248719'
p1418
sS'530357066'
p1419
S'XR_248722'
p1420
sS'530357067'
p1421
S'XR_248723'
p1422
sS'221139753'
p1423
S'NR_026656'
p1424
sS'578794980'
p1425
S'XR_425619'
p1426
sS'578794981'
p1427
S'XR_172464'
p1428
sS'578794985'
p1429
S'XR_425623'
p1430
sS'578794986'
p1431
S'XR_425624'
p1432
sS'578794987'
p1433
S'XR_425625'
p1434
sS'530357693'
p1435
S'XR_249161'
p1436
sS'578794788'
p1437
S'XR_425502'
p1438
sS'578794789'
p1439
S'XR_425503'
p1440
sS'578794786'
p1441
S'XR_425500'
p1442
sS'578794787'
p1443
S'XR_425501'
p1444
sS'578794784'
p1445
S'XR_425498'
p1446
sS'578794785'
p1447
S'XR_425499'
p1448
sS'578794782'
p1449
S'XR_425496'
p1450
sS'578794783'
p1451
S'XR_425497'
p1452
sS'578794780'
p1453
S'XR_425494'
p1454
sS'578794781'
p1455
S'XR_425495'
p1456
sS'383209669'
p1457
S'NM_001257362'
p1458
sS'530357984'
p1459
S'XR_249373'
p1460
sS'256017194'
p1461
S'NR_028335'
p1462
sS'530357980'
p1463
S'XR_249369'
p1464
sS'530357982'
p1465
S'XR_249371'
p1466
sS'530358313'
p1467
S'XR_249612'
p1468
sS'530358312'
p1469
S'XR_249611'
p1470
sS'530358314'
p1471
S'XR_249613'
p1472
sS'530358319'
p1473
S'XR_249618'
p1474
sS'530358318'
p1475
S'XR_249617'
p1476
sS'224809444'
p1477
S'NR_027313'
p1478
sS'212286160'
p1479
S'NR_024418'
p1480
sS'224809445'
p1481
S'NR_027314'
p1482
sS'239735538'
p1483
S'NR_027761'
p1484
sS'395394002'
p1485
S'NR_003580'
p1486
sS'303304951'
p1487
S'NR_036539'
p1488
sS'578795064'
p1489
S'XR_425683'
p1490
sS'578795065'
p1491
S'XR_425684'
p1492
sS'578795066'
p1493
S'XR_425685'
p1494
sS'578795067'
p1495
S'XR_249544'
p1496
sS'578795060'
p1497
S'XR_425679'
p1498
sS'578795061'
p1499
S'XR_425680'
p1500
sS'578795062'
p1501
S'XR_425681'
p1502
sS'578795063'
p1503
S'XR_425682'
p1504
sS'578795068'
p1505
S'XR_425686'
p1506
sS'578795069'
p1507
S'XR_425687'
p1508
sS'530358221'
p1509
S'XR_249549'
p1510
sS'578794423'
p1511
S'XM_006710059'
p1512
sS'578794421'
p1513
S'XM_006710082'
p1514
sS'578794420'
p1515
S'XR_425224'
p1516
sS'578794427'
p1517
S'XM_006710060'
p1518
sS'578794426'
p1519
S'XR_111915'
p1520
sS'578794425'
p1521
S'XR_425009'
p1522
sS'578794429'
p1523
S'XR_425010'
p1524
sS'530358139'
p1525
S'XR_249483'
p1526
sS'530358132'
p1527
S'XR_249477'
p1528
sS'530358137'
p1529
S'XR_249481'
p1530
sS'530356902'
p1531
S'XM_005275858'
p1532
sS'530356905'
p1533
S'XR_248603'
p1534
sS'428983472'
p1535
S'NR_073512'
p1536
sS'578794337'
p1537
S'XR_425171'
p1538
sS'578794336'
p1539
S'XR_425170'
p1540
sS'578794335'
p1541
S'XR_425169'
p1542
sS'578794334'
p1543
S'XR_248805'
p1544
sS'578795248'
p1545
S'XR_425802'
p1546
sS'578794332'
p1547
S'XR_425168'
p1548
sS'578794331'
p1549
S'XR_425167'
p1550
sS'578794330'
p1551
S'XR_425166'
p1552
sS'578795244'
p1553
S'XR_425798'
p1554
sS'578795245'
p1555
S'XR_425799'
p1556
sS'578795246'
p1557
S'XR_425800'
p1558
sS'578795247'
p1559
S'XR_425801'
p1560
sS'578795240'
p1561
S'XR_425794'
p1562
sS'578795241'
p1563
S'XR_425795'
p1564
sS'578794339'
p1565
S'XR_425173'
p1566
sS'578794338'
p1567
S'XR_425172'
p1568
sS'578795088'
p1569
S'XR_425698'
p1570
sS'578795089'
p1571
S'XM_005275955'
p1572
sS'578795082'
p1573
S'XR_425693'
p1574
sS'578795083'
p1575
S'XR_425694'
p1576
sS'578795080'
p1577
S'XR_425691'
p1578
sS'578795081'
p1579
S'XR_425692'
p1580
sS'578795086'
p1581
S'XR_249553'
p1582
sS'578795087'
p1583
S'XR_425697'
p1584
sS'578795084'
p1585
S'XR_425695'
p1586
sS'577861090'
p1587
S'NR_110415'
p1588
sS'577861091'
p1589
S'NR_110412'
p1590
sS'578794490'
p1591
S'XR_425066'
p1592
sS'578794491'
p1593
S'XR_425067'
p1594
sS'530357276'
p1595
S'XR_248878'
p1596
sS'530357278'
p1597
S'XR_248880'
p1598
sS'578794498'
p1599
S'XR_425074'
p1600
sS'530357185'
p1601
S'XR_248806'
p1602
sS'530357690'
p1603
S'XR_159387'
p1604
sS'568215761'
p1605
S'NR_109897'
p1606
sS'530357058'
p1607
S'XM_003119777'
p1608
sS'530357052'
p1609
S'XM_005275869'
p1610
sS'365733598'
p1611
S'NR_037885'
p1612
sS'578794931'
p1613
S'XR_425593'
p1614
sS'578794930'
p1615
S'XR_425592'
p1616
sS'578794932'
p1617
S'XR_425594'
p1618
sS'578794935'
p1619
S'XR_249404'
p1620
sS'578794934'
p1621
S'XR_425595'
p1622
sS'578794937'
p1623
S'XR_249407'
p1624
sS'578794936'
p1625
S'XR_249405'
p1626
sS'578794939'
p1627
S'XR_249406'
p1628
sS'578794938'
p1629
S'XR_425596'
p1630
sS'578794513'
p1631
S'XR_248686'
p1632
sS'530357997'
p1633
S'XR_249381'
p1634
sS'530357994'
p1635
S'XR_172461'
p1636
sS'530357998'
p1637
S'XM_005275942'
p1638
sS'578794684'
p1639
S'XR_425434'
p1640
sS'530358306'
p1641
S'XR_249607'
p1642
sS'578794682'
p1643
S'XR_425432'
p1644
sS'578794681'
p1645
S'XR_425431'
p1646
sS'530358305'
p1647
S'XR_249606'
p1648
sS'578795022'
p1649
S'XR_425648'
p1650
sS'530358067'
p1651
S'XR_249429'
p1652
sS'530357860'
p1653
S'XR_249273'
p1654
sS'530357861'
p1655
S'XR_249274'
p1656
sS'578795026'
p1657
S'XR_425651'
p1658
sS'558516032'
p1659
S'NR_104602'
p1660
sS'578794837'
p1661
S'XR_425534'
p1662
sS'578794759'
p1663
S'XR_425477'
p1664
sS'530358234'
p1665
S'XR_249555'
p1666
sS'530358235'
p1667
S'XR_249556'
p1668
sS'530358232'
p1669
S'XR_159429'
p1670
sS'323462195'
p1671
S'NR_037869'
p1672
sS'515871354'
p1673
S'NR_103769'
p1674
sS'578794752'
p1675
S'XR_249212'
p1676
sS'578794754'
p1677
S'XM_006710140'
p1678
sS'578794757'
p1679
S'XR_425475'
p1680
sS'578794756'
p1681
S'XR_425474'
p1682
sS'530358108'
p1683
S'XM_003119906'
p1684
sS'578794434'
p1685
S'XR_425024'
p1686
sS'578794435'
p1687
S'XR_425025'
p1688
sS'578794436'
p1689
S'XR_425026'
p1690
sS'578794437'
p1691
S'XR_425027'
p1692
sS'578794430'
p1693
S'XR_425011'
p1694
sS'578794431'
p1695
S'XR_425012'
p1696
sS'578794432'
p1697
S'XR_425013'
p1698
sS'578794433'
p1699
S'XR_425014'
p1700
sS'578794438'
p1701
S'XR_425028'
p1702
sS'578794439'
p1703
S'XR_425029'
p1704
sS'514961976'
p1705
S'NR_103768'
p1706
sS'530358128'
p1707
S'XR_112543'
p1708
sS'300360527'
p1709
S'NR_034032'
p1710
sS'530358127'
p1711
S'XR_133353'
p1712
sS'530356933'
p1713
S'XR_248619'
p1714
sS'530356932'
p1715
S'XR_248618'
p1716
sS'530356931'
p1717
S'XR_248617'
p1718
sS'530356939'
p1719
S'XR_248625'
p1720
sS'578794328'
p1721
S'XR_425164'
p1722
sS'578794329'
p1723
S'XR_425165'
p1724
sS'578794320'
p1725
S'XR_425156'
p1726
sS'578794321'
p1727
S'XR_425157'
p1728
sS'578794322'
p1729
S'XR_425158'
p1730
sS'578794323'
p1731
S'XR_425159'
p1732
sS'578794325'
p1733
S'XR_425161'
p1734
sS'578794326'
p1735
S'XR_425162'
p1736
sS'578794327'
p1737
S'XR_425163'
p1738
sS'300116239'
p1739
S'NR_033981'
p1740
sS'530357268'
p1741
S'XR_248870'
p1742
sS'530357260'
p1743
S'XR_248864'
p1744
sS'530357267'
p1745
S'XR_112106'
p1746
sS'302393541'
p1747
S'NR_036504'
p1748
sS'302393543'
p1749
S'NR_036505'
p1750
sS'530357197'
p1751
S'XR_248814'
p1752
sS'530357195'
p1753
S'XR_159343'
p1754
sS'530357190'
p1755
S'XR_248811'
p1756
sS'339895826'
p1757
S'NR_033797'
p1758
sS'454609669'
p1759
S'NR_077241'
p1760
sS'397137974'
p1761
S'XR_159331'
p1762
sS'300068930'
p1763
S'NR_033971'
p1764
sS'530357681'
p1765
S'XR_249151'
p1766
sS'530357689'
p1767
S'XR_249158'
p1768
sS'578794604'
p1769
S'XR_425387'
p1770
sS'530357040'
p1771
S'XR_248703'
p1772
sS'530357042'
p1773
S'XR_248705'
p1774
sS'530357043'
p1775
S'XR_248706'
p1776
sS'578795118'
p1777
S'XR_425715'
p1778
sS'578795119'
p1779
S'XR_425716'
p1780
sS'302318971'
p1781
S'NR_036490'
p1782
sS'578794585'
p1783
S'XR_425371'
p1784
sS'578794683'
p1785
S'XR_425433'
p1786
sS'217035108'
p1787
S'NR_024563'
p1788
sS'578794680'
p1789
S'XR_425430'
p1790
sS'578794922'
p1791
S'XR_425585'
p1792
sS'578794923'
p1793
S'XR_425586'
p1794
sS'578794920'
p1795
S'XR_249394'
p1796
sS'578794926'
p1797
S'XR_425589'
p1798
sS'578794927'
p1799
S'XR_425590'
p1800
sS'578794924'
p1801
S'XR_425587'
p1802
sS'578794925'
p1803
S'XR_425588'
p1804
sS'578794928'
p1805
S'XR_425591'
p1806
sS'578794699'
p1807
S'XR_249174'
p1808
sS'578794696'
p1809
S'XM_005275924'
p1810
sS'578794697'
p1811
S'XR_425438'
p1812
sS'530357856'
p1813
S'XR_249269'
p1814
sS'530357855'
p1815
S'XR_249268'
p1816
sS'530357850'
p1817
S'XR_249263'
p1818
sS'530358209'
p1819
S'XR_249540'
p1820
sS'530358207'
p1821
S'XR_249538'
p1822
sS'530358206'
p1823
S'XR_249537'
p1824
sS'578794749'
p1825
S'XM_005275933'
p1826
sS'515871367'
p1827
S'NR_103770'
p1828
sS'578794742'
p1829
S'XR_425468'
p1830
sS'578794743'
p1831
S'XR_425469'
p1832
sS'578794740'
p1833
S'XR_425466'
p1834
sS'578794741'
p1835
S'XR_425467'
p1836
sS'578794747'
p1837
S'XM_005275931'
p1838
sS'578794744'
p1839
S'XR_425470'
p1840
sS'530358062'
p1841
S'XR_249425'
p1842
sS'212720917'
p1843
S'NR_024447'
p1844
sS'530356928'
p1845
S'XR_111936'
p1846
sS'530358119'
p1847
S'XR_249470'
p1848
sS'530356920'
p1849
S'XR_133201'
p1850
sS'530356922'
p1851
S'XR_248610'
p1852
sS'530358114'
p1853
S'XR_249465'
p1854
sS'530358113'
p1855
S'XR_249464'
p1856
sS'530356927'
p1857
S'XR_159323'
p1858
sS'578794359'
p1859
S'XR_425192'
p1860
sS'578794358'
p1861
S'XR_425191'
p1862
sS'578794355'
p1863
S'XR_425188'
p1864
sS'578794354'
p1865
S'XR_425187'
p1866
sS'578794357'
p1867
S'XR_425190'
p1868
sS'578794356'
p1869
S'XR_425189'
p1870
sS'578794351'
p1871
S'XR_425185'
p1872
sS'578794350'
p1873
S'XR_425184'
p1874
sS'578794353'
p1875
S'XR_248825'
p1876
sS'578794352'
p1877
S'XR_425186'
p1878
sS'578794599'
p1879
S'XR_249103'
p1880
sS'578794598'
p1881
S'XR_425383'
p1882
sS'578794593'
p1883
S'XR_425378'
p1884
sS'578794591'
p1885
S'XR_249100'
p1886
sS'578794597'
p1887
S'XR_425382'
p1888
sS'578794596'
p1889
S'XR_425381'
p1890
sS'578794595'
p1891
S'XR_425380'
p1892
sS'578794594'
p1893
S'XR_425379'
p1894
sS'530357219'
p1895
S'XR_248827'
p1896
sS'530357218'
p1897
S'XR_159349'
p1898
sS'530357217'
p1899
S'XR_248826'
p1900
sS'530357213'
p1901
S'XR_248823'
p1902
sS'530357212'
p1903
S'XR_248822'
p1904
sS'224967097'
p1905
S'NR_027288'
p1906
sS'313760527'
p1907
S'NR_037629'
p1908
sS'530357037'
p1909
S'XR_112011'
p1910
sS'530357036'
p1911
S'XR_248700'
p1912
sS'530357033'
p1913
S'XR_248697'
p1914
sS'530357038'
p1915
S'XR_248701'
p1916
sS'578794751'
p1917
S'XR_425472'
p1918
sS'578794628'
p1919
S'XR_249132'
p1920
sS'578794753'
p1921
S'XR_425473'
p1922
sS'306518576'
p1923
S'NR_036611'
p1924
sS'338753382'
p1925
S'NR_040013'
p1926
sS'530357142'
p1927
S'XR_248770'
p1928
sS'530357145'
p1929
S'XR_248773'
p1930
sS'530357144'
p1931
S'XR_248772'
p1932
sS'571330854'
p1933
S'NR_110160'
p1934
sS'213513106'
p1935
S'NR_024491'
p1936
sS'578794917'
p1937
S'XR_425582'
p1938
sS'578794916'
p1939
S'XR_425581'
p1940
sS'578794915'
p1941
S'XR_249387'
p1942
sS'578794914'
p1943
S'XR_425580'
p1944
sS'578794913'
p1945
S'XR_425579'
p1946
sS'578794912'
p1947
S'XR_249385'
p1948
sS'578794911'
p1949
S'XR_425578'
p1950
sS'578794910'
p1951
S'XR_425577'
p1952
sS'578794919'
p1953
S'XR_425583'
p1954
sS'578794918'
p1955
S'XR_249390'
p1956
sS'578794634'
p1957
S'XM_005275919'
p1958
sS'530358322'
p1959
S'XR_249621'
p1960
sS'530358324'
p1961
S'XR_249623'
p1962
sS'222831626'
p1963
S'NR_026740'
p1964
sS'224451046'
p1965
S'NR_027046'
p1966
sS'530357846'
p1967
S'XR_249260'
p1968
sS'530358218'
p1969
S'XR_249547'
p1970
sS'530358210'
p1971
S'XR_249541'
p1972
sS'338827741'
p1973
S'NM_001242853'
p1974
sS'515871371'
p1975
S'NR_103775'
p1976
sS'578794778'
p1977
S'XR_425492'
p1978
sS'578794777'
p1979
S'XR_425491'
p1980
sS'578794776'
p1981
S'XR_425490'
p1982
sS'578794775'
p1983
S'XR_425489'
p1984
sS'578794774'
p1985
S'XR_249243'
p1986
sS'578794773'
p1987
S'XR_425488'
p1988
sS'578794772'
p1989
S'XR_425487'
p1990
sS'578794771'
p1991
S'XR_249242'
p1992
sS'578794770'
p1993
S'XR_425486'
p1994
sS'310114097'
p1995
S'XR_112281'
p1996
sS'578795183'
p1997
S'XR_249633'
p1998
sS'578795181'
p1999
S'XR_249632'
p2000
sS'578795180'
p2001
S'XR_249631'
p2002
sS'578795187'
p2003
S'XR_425755'
p2004
sS'578795186'
p2005
S'XR_249635'
p2006
sS'578795185'
p2007
S'XR_425754'
p2008
sS'578795184'
p2009
S'XR_425753'
p2010
sS'578795189'
p2011
S'XR_425756'
p2012
sS'530358103'
p2013
S'XR_249458'
p2014
sS'530358105'
p2015
S'XR_249460'
p2016
sS'530358107'
p2017
S'XR_249462'
p2018
sS'530356955'
p2019
S'XR_248635'
p2020
sS'530356957'
p2021
S'XR_248637'
p2022
sS'530356953'
p2023
S'XR_248633'
p2024
sS'578794629'
p2025
S'XR_425403'
p2026
sS'310114434'
p2027
S'XR_112482'
p2028
sS'91206427'
p2029
S'NM_001040071'
p2030
sS'530358047'
p2031
S'XM_005275947'
p2032
sS'578794348'
p2033
S'XR_425183'
p2034
sS'578794346'
p2035
S'XR_425181'
p2036
sS'578794347'
p2037
S'XR_425182'
p2038
sS'578794344'
p2039
S'XR_425179'
p2040
sS'578794345'
p2041
S'XR_425180'
p2042
sS'578794342'
p2043
S'XR_425176'
p2044
sS'578794340'
p2045
S'XR_425174'
p2046
sS'578794341'
p2047
S'XR_425175'
p2048
sS'578794588'
p2049
S'XR_425374'
p2050
sS'578794589'
p2051
S'XR_425375'
p2052
sS'578794584'
p2053
S'XR_425370'
p2054
sS'578794243'
p2055
S'XR_425225'
p2056
sS'578794587'
p2057
S'XR_425373'
p2058
sS'578794580'
p2059
S'XR_425366'
p2060
sS'578794581'
p2061
S'XR_425367'
p2062
sS'578794582'
p2063
S'XR_425368'
p2064
sS'578794583'
p2065
S'XR_425369'
p2066
sS'530357567'
p2067
S'XR_249064'
p2068
sS'530357204'
p2069
S'XM_005275882'
p2070
sS'530357200'
p2071
S'XR_248816'
p2072
sS'578794991'
p2073
S'XR_425629'
p2074
sS'530357569'
p2075
S'XR_112272'
p2076
sS'530357568'
p2077
S'XR_249065'
p2078
sS'578795169'
p2079
S'XR_425749'
p2080
sS'578795168'
p2081
S'XR_249622'
p2082
sS'578795161'
p2083
S'XR_249615'
p2084
sS'578795163'
p2085
S'XR_425745'
p2086
sS'578795162'
p2087
S'XR_425744'
p2088
sS'578795165'
p2089
S'XR_425746'
p2090
sS'578795167'
p2091
S'XR_425748'
p2092
sS'578795166'
p2093
S'XR_425747'
p2094
sS'313760605'
p2095
S'NR_037631'
p2096
sS'336595076'
p2097
S'NR_038935'
p2098
sS'530357026'
p2099
S'XR_248690'
p2100
sS'530357025'
p2101
S'XR_248689'
p2102
sS'530357023'
p2103
S'XR_248687'
p2104
sS'530357020'
p2105
S'XR_248684'
p2106
sS'530357159'
p2107
S'XR_248781'
p2108
sS'530357152'
p2109
S'XR_248776'
p2110
sS'530357153'
p2111
S'XR_248777'
p2112
sS'299782609'
p2113
S'NR_033866'
p2114
sS'578794908'
p2115
S'XR_425575'
p2116
sS'578794909'
p2117
S'XR_425576'
p2118
sS'578794901'
p2119
S'XR_425572'
p2120
sS'578794902'
p2121
S'XM_006710147'
p2122
sS'578794904'
p2123
S'XR_425573'
p2124
sS'578794905'
p2125
S'XR_249379'
p2126
sS'578794906'
p2127
S'XR_425574'
p2128
sS'567757627'
p2129
S'NR_109880'
p2130
sS'567757623'
p2131
S'NR_109870'
p2132
sS'530358357'
p2133
S'XR_249651'
p2134
sS'530358356'
p2135
S'XR_249650'
p2136
sS'530358351'
p2137
S'XR_249645'
p2138
sS'530357788'
p2139
S'XR_249211'
p2140
sS'530357839'
p2141
S'XR_249253'
p2142
sS'530357838'
p2143
S'XR_249252'
p2144
sS'530357783'
p2145
S'XR_249208'
p2146
sS'530357782'
p2147
S'XR_249207'
p2148
sS'530357831'
p2149
S'XM_001721827'
p2150
sS'530357833'
p2151
S'XR_249247'
p2152
sS'530357784'
p2153
S'XM_005275934'
p2154
sS'315221154'
p2155
S'NR_037665'
p2156
sS'194097393'
p2157
S'NR_004846'
p2158
sS'578794760'
p2159
S'XR_425478'
p2160
sS'578794761'
p2161
S'XR_425479'
p2162
sS'578794762'
p2163
S'XR_249238'
p2164
sS'578794763'
p2165
S'XR_425480'
p2166
sS'578794764'
p2167
S'XR_425481'
p2168
sS'578794765'
p2169
S'XR_425482'
p2170
sS'578794766'
p2171
S'XR_249240'
p2172
sS'578794767'
p2173
S'XR_425483'
p2174
sS'578794768'
p2175
S'XR_425484'
p2176
sS'578794769'
p2177
S'XR_425485'
p2178
sS'530357941'
p2179
S'XR_249334'
p2180
sS'530357947'
p2181
S'XR_249340'
p2182
sS'530357948'
p2183
S'XM_005275941'
p2184
sS'210147393'
p2185
S'NR_024278'
p2186
sS'578795194'
p2187
S'XR_425760'
p2188
sS'578795195'
p2189
S'XR_425761'
p2190
sS'578795196'
p2191
S'XM_006710160'
p2192
sS'578795190'
p2193
S'XR_249641'
p2194
sS'578795191'
p2195
S'XR_425757'
p2196
sS'578795192'
p2197
S'XR_425758'
p2198
sS'578795193'
p2199
S'XR_425759'
p2200
sS'578794702'
p2201
S'XR_425442'
p2202
sS'578795198'
p2203
S'XR_425762'
p2204
sS'578795199'
p2205
S'XR_425763'
p2206
sS'530358175'
p2207
S'XR_249512'
p2208
sS'530358177'
p2209
S'XR_249514'
p2210
sS'530356948'
p2211
S'XR_248630'
p2212
sS'530356943'
p2213
S'XR_248627'
p2214
sS'578794373'
p2215
S'XR_425199'
p2216
sS'578794372'
p2217
S'XR_248839'
p2218
sS'578794371'
p2219
S'XR_425198'
p2220
sS'578794374'
p2221
S'XR_425200'
p2222
sS'578794379'
p2223
S'XR_248843'
p2224
sS'530358009'
p2225
S'XR_249386'
p2226
sS'578794570'
p2227
S'XR_425358'
p2228
sS'578794573'
p2229
S'XR_425360'
p2230
sS'578794572'
p2231
S'XR_249083'
p2232
sS'578794575'
p2233
S'XR_249086'
p2234
sS'578794574'
p2235
S'XR_425361'
p2236
sS'578794577'
p2237
S'XR_425363'
p2238
sS'578794576'
p2239
S'XR_425362'
p2240
sS'578794579'
p2241
S'XR_425365'
p2242
sS'578794578'
p2243
S'XR_425364'
p2244
sS'530358003'
p2245
S'XR_249382'
p2246
sS'530358005'
p2247
S'XR_159406'
p2248
sS'530358004'
p2249
S'XR_112464'
p2250
sS'530358006'
p2251
S'XR_249383'
p2252
sS'221307589'
p2253
S'NR_026674'
p2254
sS'530357233'
p2255
S'XR_248840'
p2256
sS'530357234'
p2257
S'XR_248841'
p2258
sS'284005198'
p2259
S'NR_033244'
p2260
sS'578794485'
p2261
S'XR_248651'
p2262
sS'578794484'
p2263
S'XR_425062'
p2264
sS'578794487'
p2265
S'XR_425064'
p2266
sS'578794486'
p2267
S'XR_425063'
p2268
sS'578794481'
p2269
S'XR_425060'
p2270
sS'578794480'
p2271
S'XR_425059'
p2272
sS'578794483'
p2273
S'XR_425061'
p2274
sS'578794482'
p2275
S'XR_248650'
p2276
sS'578795172'
p2277
S'XR_425751'
p2278
sS'578795173'
p2279
S'XM_001717423'
p2280
sS'578795170'
p2281
S'XR_425750'
p2282
sS'578795171'
p2283
S'XR_249626'
p2284
sS'578794489'
p2285
S'XR_425065'
p2286
sS'578795177'
p2287
S'XM_006710159'
p2288
sS'578795175'
p2289
S'XM_006710158'
p2290
sS'491231451'
p2291
S'NR_102752'
p2292
sS'397138220'
p2293
S'XR_159407'
p2294
sS'578794399'
p2295
S'XR_425213'
p2296
sS'578794398'
p2297
S'XR_425212'
p2298
sS'578794391'
p2299
S'XR_425207'
p2300
sS'578794390'
p2301
S'XR_425206'
p2302
sS'578794393'
p2303
S'XR_248868'
p2304
sS'578794392'
p2305
S'XR_425208'
p2306
sS'578794395'
p2307
S'XR_425209'
p2308
sS'578794394'
p2309
S'XR_248869'
p2310
sS'578794397'
p2311
S'XR_425211'
p2312
sS'578794396'
p2313
S'XR_425210'
p2314
sS'410170013'
p2315
S'XM_003960901'
p2316
sS'530358094'
p2317
S'XR_112523'
p2318
sS'530358095'
p2319
S'XR_249450'
p2320
sS'578794860'
p2321
S'XM_006710144'
p2322
sS'530358098'
p2323
S'XR_249453'
p2324
sS'530358099'
p2325
S'XR_249454'
p2326
sS'530357164'
p2327
S'XR_248786'
p2328
sS'558757430'
p2329
S'NR_104630'
p2330
sS'578794979'
p2331
S'XR_425618'
p2332
sS'578794978'
p2333
S'XR_249461'
p2334
sS'578794975'
p2335
S'XR_425617'
p2336
sS'578794974'
p2337
S'XR_425616'
p2338
sS'578794977'
p2339
S'XR_249459'
p2340
sS'578794976'
p2341
S'XR_249457'
p2342
sS'578794971'
p2343
S'XR_425614'
p2344
sS'578794970'
p2345
S'XR_249445'
p2346
sS'578794973'
p2347
S'XR_249455'
p2348
sS'578794972'
p2349
S'XR_425615'
p2350
sS'530356967'
p2351
S'XR_248640'
p2352
sS'578795223'
p2353
S'XR_425782'
p2354
sS'223468635'
p2355
S'NR_026792'
p2356
sS'224809580'
p2357
S'NR_027322'
p2358
sS'530358348'
p2359
S'XR_249644'
p2360
sS'530358349'
p2361
S'XM_005275962'
p2362
sS'530358347'
p2363
S'XR_249643'
p2364
sS'530358343'
p2365
S'XR_249639'
p2366
sS'578794801'
p2367
S'XR_249278'
p2368
sS'578794800'
p2369
S'XR_249279'
p2370
sS'578794803'
p2371
S'XR_425510'
p2372
sS'578794802'
p2373
S'XR_159398'
p2374
sS'578794805'
p2375
S'XR_425512'
p2376
sS'578794804'
p2377
S'XR_425511'
p2378
sS'578794807'
p2379
S'XR_425514'
p2380
sS'578794806'
p2381
S'XR_425513'
p2382
sS'578794809'
p2383
S'XR_425516'
p2384
sS'578794808'
p2385
S'XR_425515'
p2386
sS'509155866'
p2387
S'NR_103470'
p2388
sS'530357795'
p2389
S'XR_249218'
p2390
sS'530357796'
p2391
S'XR_249219'
p2392
sS'530357822'
p2393
S'XR_249239'
p2394
sS'530357820'
p2395
S'XR_249237'
p2396
sS'530357793'
p2397
S'XR_249216'
p2398
sS'578794715'
p2399
S'XR_425450'
p2400
sS'578794714'
p2401
S'XR_425449'
p2402
sS'578794717'
p2403
S'XR_425452'
p2404
sS'578794716'
p2405
S'XR_425451'
p2406
sS'578794711'
p2407
S'XR_425446'
p2408
sS'578794710'
p2409
S'XR_425445'
p2410
sS'578794713'
p2411
S'XR_425448'
p2412
sS'578794712'
p2413
S'XR_425447'
p2414
sS'578794719'
p2415
S'XR_425454'
p2416
sS'578794718'
p2417
S'XR_425453'
p2418
sS'530357952'
p2419
S'XR_249343'
p2420
sS'530357954'
p2421
S'XR_159402'
p2422
sS'530357959'
p2423
S'XR_249349'
p2424
sS'530358166'
p2425
S'XR_249504'
p2426
sS'530358167'
p2427
S'XR_249505'
p2428
sS'530356970'
p2429
S'XR_111974'
p2430
sS'530358160'
p2431
S'XR_249500'
p2432
sS'530356974'
p2433
S'XR_248646'
p2434
sS'578794621'
p2435
S'XR_249130'
p2436
sS'578794620'
p2437
S'XR_249128'
p2438
sS'578794623'
p2439
S'XR_425400'
p2440
sS'530356978'
p2441
S'XR_248649'
p2442
sS'578794625'
p2443
S'XR_249131'
p2444
sS'578794624'
p2445
S'XR_425401'
p2446
sS'578794626'
p2447
S'XR_112327'
p2448
sS'530356999'
p2449
S'XR_248670'
p2450
sS'530356993'
p2451
S'XR_248664'
p2452
sS'530356995'
p2453
S'XR_248666'
p2454
sS'530356996'
p2455
S'XR_248667'
p2456
sS'578794364'
p2457
S'XR_248831'
p2458
sS'578794365'
p2459
S'XR_425195'
p2460
sS'578794366'
p2461
S'XR_248832'
p2462
sS'578794360'
p2463
S'XR_425193'
p2464
sS'578794361'
p2465
S'XR_425194'
p2466
sS'578794362'
p2467
S'XM_006710075'
p2468
sS'578794368'
p2469
S'XR_425196'
p2470
sS'578794369'
p2471
S'XR_425197'
p2472
sS'578794562'
p2473
S'XR_425352'
p2474
sS'578794563'
p2475
S'XR_425353'
p2476
sS'530358018'
p2477
S'XR_249392'
p2478
sS'530358019'
p2479
S'XR_249393'
p2480
sS'578794566'
p2481
S'XR_425356'
p2482
sS'578794564'
p2483
S'XR_425354'
p2484
sS'578794565'
p2485
S'XR_425355'
p2486
sS'578794568'
p2487
S'XM_006710126'
p2488
sS'530358016'
p2489
S'XR_112468'
p2490
sS'530358017'
p2491
S'XR_249391'
p2492
sS'530357226'
p2493
S'XR_248833'
p2494
sS'530357227'
p2495
S'XR_248834'
p2496
sS'530357220'
p2497
S'XR_248828'
p2498
sS'530357221'
p2499
S'XR_112091'
p2500
sS'530357229'
p2501
S'XR_248836'
p2502
sS'148229490'
p2503
S'NM_001089591'
p2504
sS'578794496'
p2505
S'XR_425072'
p2506
sS'578794497'
p2507
S'XR_425073'
p2508
sS'578794494'
p2509
S'XR_425070'
p2510
sS'578794495'
p2511
S'XR_425071'
p2512
sS'578794492'
p2513
S'XR_425068'
p2514
sS'578795149'
p2515
S'XR_249602'
p2516
sS'578795148'
p2517
S'XR_425736'
p2518
sS'578795147'
p2519
S'XR_425735'
p2520
sS'578795146'
p2521
S'XR_425734'
p2522
sS'578795145'
p2523
S'XR_249598'
p2524
sS'578795144'
p2525
S'XR_425733'
p2526
sS'578795143'
p2527
S'XR_249595'
p2528
sS'578795142'
p2529
S'XR_425732'
p2530
sS'578795141'
p2531
S'XR_425731'
p2532
sS'578794499'
p2533
S'XR_248668'
p2534
sS'288541338'
p2535
S'NR_033267'
p2536
sS'559098517'
p2537
S'NR_104652'
p2538
sS'559098516'
p2539
S'NR_104654'
p2540
sS'578794388'
p2541
S'XR_248862'
p2542
sS'578794389'
p2543
S'XR_425205'
p2544
sS'387942433'
p2545
S'NR_049748'
p2546
sS'578794382'
p2547
S'XR_248848'
p2548
sS'578794380'
p2549
S'XR_425201'
p2550
sS'578794386'
p2551
S'XR_425203'
p2552
sS'578794387'
p2553
S'XR_425204'
p2554
sS'578794384'
p2555
S'XR_248855'
p2556
sS'578794385'
p2557
S'XR_425202'
p2558
sS'530357006'
p2559
S'XM_005275868'
p2560
sS'349585117'
p2561
S'NR_045207'
p2562
sS'222136648'
p2563
S'NM_001144931'
p2564
sS'530357176'
p2565
S'XR_248798'
p2566
sS'530357177'
p2567
S'XR_248799'
p2568
sS'530357835'
p2569
S'XR_249249'
p2570
sS'578794968'
p2571
S'XR_249437'
p2572
sS'578794969'
p2573
S'XR_249443'
p2574
sS'578794966'
p2575
S'XR_425613'
p2576
sS'578794967'
p2577
S'XR_249436'
p2578
sS'578794964'
p2579
S'XR_425612'
p2580
sS'578794965'
p2581
S'XR_249435'
p2582
sS'578794962'
p2583
S'XR_425610'
p2584
sS'578794963'
p2585
S'XR_425611'
p2586
sS'578794960'
p2587
S'XR_249428'
p2588
sS'578794961'
p2589
S'XR_425609'
p2590
sS'530357832'
p2591
S'XR_249246'
p2592
sS'530358376'
p2593
S'XR_249669'
p2594
sS'530358375'
p2595
S'XR_249668'
p2596
sS'530358374'
p2597
S'XR_249667'
p2598
sS'530358379'
p2599
S'XR_249672'
p2600
sS'530358378'
p2601
S'XR_249671'
p2602
sS'578794812'
p2603
S'XR_249287'
p2604
sS'578794813'
p2605
S'XR_425519'
p2606
sS'578794810'
p2607
S'XR_425517'
p2608
sS'578794811'
p2609
S'XR_425518'
p2610
sS'578794816'
p2611
S'XR_425520'
p2612
sS'530357566'
p2613
S'XR_249063'
p2614
sS'578794814'
p2615
S'XR_249288'
p2616
sS'578794815'
p2617
S'XR_249289'
p2618
sS'578794818'
p2619
S'XR_425522'
p2620
sS'578794819'
p2621
S'XR_425523'
p2622
sS'530357810'
p2623
S'XR_249228'
p2624
sS'530357816'
p2625
S'XR_249233'
p2626
sS'212549757'
p2627
S'NR_024440'
p2628
sS'224493888'
p2629
S'NR_027134'
p2630
sS'374671831'
p2631
S'NR_046285'
p2632
sS'578795056'
p2633
S'XR_425675'
p2634
sS'578794706'
p2635
S'XR_249184'
p2636
sS'578794707'
p2637
S'XR_425444'
p2638
sS'578794704'
p2639
S'XR_249182'
p2640
sS'578794705'
p2641
S'XR_249183'
p2642
sS'578795051'
p2643
S'XR_425672'
p2644
sS'578794703'
p2645
S'XR_425443'
p2646
sS'578794700'
p2647
S'XR_425440'
p2648
sS'578794701'
p2649
S'XR_425441'
p2650
sS'578794708'
p2651
S'XM_006710138'
p2652
sS'530358180'
p2653
S'XR_249517'
p2654
sS'530357965'
p2655
S'XR_249354'
p2656
sS'578795050'
p2657
S'XR_249525'
p2658
sS'299829266'
p2659
S'NR_033909'
p2660
sS'530358159'
p2661
S'XR_249499'
p2662
sS'530358150'
p2663
S'XR_249491'
p2664
sS'530358156'
p2665
S'XR_249497'
p2666
sS'530358399'
p2667
S'XR_249687'
p2668
sS'530358398'
p2669
S'XR_249686'
p2670
sS'578794638'
p2671
S'XR_425410'
p2672
sS'578794639'
p2673
S'XR_425411'
p2674
sS'578794632'
p2675
S'XR_425406'
p2676
sS'578794633'
p2677
S'XR_425407'
p2678
sS'578794630'
p2679
S'XR_425404'
p2680
sS'578794631'
p2681
S'XR_425405'
p2682
sS'530358394'
p2683
S'XR_249683'
p2684
sS'530358397'
p2685
S'XR_133382'
p2686
sS'578794635'
p2687
S'XR_425408'
p2688
sS'530357589'
p2689
S'XR_249078'
p2690
sS'530357580'
p2691
S'XR_249072'
p2692
sS'530357583'
p2693
S'XR_249073'
p2694
sS'530357584'
p2695
S'XR_249074'
p2696
sS'530356988'
p2697
S'XR_248659'
p2698
sS'530356989'
p2699
S'XR_248660'
p2700
sS'310114606'
p2701
S'XR_112631'
p2702
sS'530356983'
p2703
S'XR_248654'
p2704
sS'530356987'
p2705
S'XR_248658'
p2706
sS'578794557'
p2707
S'XR_425120'
p2708
sS'578794556'
p2709
S'XR_425119'
p2710
sS'578794555'
p2711
S'XR_425118'
p2712
sS'578794554'
p2713
S'XR_425117'
p2714
sS'578794553'
p2715
S'XR_112030'
p2716
sS'578794552'
p2717
S'XR_425116'
p2718
sS'578794551'
p2719
S'XR_425115'
p2720
sS'578794550'
p2721
S'XR_425114'
p2722
sS'530358024'
p2723
S'XR_249396'
p2724
sS'530358022'
p2725
S'XM_003846667'
p2726
sS'578794559'
p2727
S'XM_006710125'
p2728
sS'578794558'
p2729
S'XR_425121'
p2730
sS'153792508'
p2731
S'NR_003665'
p2732
sS'578795150'
p2733
S'XR_249604'
p2734
sS'578795151'
p2735
S'XR_249603'
p2736
sS'578795152'
p2737
S'XR_425737'
p2738
sS'578795153'
p2739
S'XR_425738'
p2740
sS'578795154'
p2741
S'XR_425739'
p2742
sS'578795155'
p2743
S'XR_425740'
p2744
sS'578795156'
p2745
S'XR_425741'
p2746
sS'578795157'
p2747
S'XR_425742'
p2748
sS'578795158'
p2749
S'XR_249608'
p2750
sS'578795159'
p2751
S'XR_425743'
p2752
s.