(dp0
S'219842206'
p1
S' Homo sapiens solute carrier family 25, member 51 pseudogene (LOC494141), transcript variant 1, non-coding RNA'
p2
sS'209862783'
p3
S' Homo sapiens uncharacterized LOC100132111 (LOC100132111), long non-coding RNA'
p4
sS'530357632'
p5
S' PREDICTED: Homo sapiens uncharacterized LOC101929542 (LOC101929542), ncRNA'
p6
sS'530357103'
p7
S' PREDICTED: Homo sapiens uncharacterized LOC101927441 (LOC101927441), transcript variant X2, ncRNA'
p8
sS'530357108'
p9
S' PREDICTED: Homo sapiens uncharacterized LOC101927895 (LOC101927895), transcript variant X1, ncRNA'
p10
sS'578794953'
p11
S' PREDICTED: Homo sapiens uncharacterized LOC101927225 (LOC101927225), ncRNA'
p12
sS'578794952'
p13
S' PREDICTED: Homo sapiens uncharacterized LOC102724817 (LOC102724817), ncRNA'
p14
sS'578794951'
p15
S' PREDICTED: Homo sapiens uncharacterized LOC102724799 (LOC102724799), ncRNA'
p16
sS'578794957'
p17
S' PREDICTED: Homo sapiens uncharacterized LOC101927321 (LOC101927321), ncRNA'
p18
sS'578794956'
p19
S' PREDICTED: Homo sapiens uncharacterized LOC102725494 (LOC102725494), ncRNA'
p20
sS'578794955'
p21
S' PREDICTED: Homo sapiens uncharacterized LOC102724840 (LOC102724840), transcript variant X2, ncRNA'
p22
sS'578794954'
p23
S' PREDICTED: Homo sapiens uncharacterized LOC102724840 (LOC102724840), transcript variant X1, ncRNA'
p24
sS'578794959'
p25
S' PREDICTED: Homo sapiens uncharacterized LOC102724949 (LOC102724949), ncRNA'
p26
sS'578794958'
p27
S' PREDICTED: Homo sapiens uncharacterized LOC102724914 (LOC102724914), ncRNA'
p28
sS'530357618'
p29
S' PREDICTED: Homo sapiens uncharacterized LOC100507562 (LOC100507562), ncRNA'
p30
sS'530357610'
p31
S' PREDICTED: Homo sapiens peptidyl-prolyl cis-trans isomerase A-like (LOC650157), mRNA'
p32
sS'530357612'
p33
S' PREDICTED: Homo sapiens uncharacterized LOC101928271 (LOC101928271), ncRNA'
p34
sS'530357614'
p35
S' PREDICTED: Homo sapiens uncharacterized LOC101928196 (LOC101928196), ncRNA'
p36
sS'530357617'
p37
S' PREDICTED: Homo sapiens uncharacterized LOC101929195 (LOC101929195), ncRNA'
p38
sS'530357616'
p39
S' PREDICTED: Homo sapiens uncharacterized LOC101928129 (LOC101928129), ncRNA'
p40
sS'223941934'
p41
S' Homo sapiens uncharacterized protein DKFZp434L192 (DKFZp434L192), long non-coding RNA'
p42
sS'578795059'
p43
S' PREDICTED: Homo sapiens uncharacterized LOC102724068 (LOC102724068), ncRNA'
p44
sS'530358365'
p45
S' PREDICTED: Homo sapiens uncharacterized LOC100507487 (LOC100507487), transcript variant X1, ncRNA'
p46
sS'530358366'
p47
S' PREDICTED: Homo sapiens uncharacterized LOC100507487 (LOC100507487), transcript variant X2, ncRNA'
p48
sS'530358367'
p49
S' PREDICTED: Homo sapiens uncharacterized LOC101927259 (LOC101927259), ncRNA'
p50
sS'47174756'
p51
S' Homo sapiens mitogen-activated protein kinase kinase 2 pseudogene (LOC407835), non-coding RNA'
p52
sS'578794827'
p53
S' PREDICTED: Homo sapiens uncharacterized LOC102723315 (LOC102723315), ncRNA'
p54
sS'578794826'
p55
S' PREDICTED: Homo sapiens uncharacterized LOC101928278 (LOC101928278), ncRNA'
p56
sS'578794825'
p57
S' PREDICTED: Homo sapiens uncharacterized LOC101928180 (LOC101928180), transcript variant X4, ncRNA'
p58
sS'578794824'
p59
S' PREDICTED: Homo sapiens uncharacterized LOC101928156 (LOC101928156), ncRNA'
p60
sS'530357570'
p61
S' PREDICTED: Homo sapiens mucin-19-like (LOC100996637), mRNA'
p62
sS'578794822'
p63
S' PREDICTED: Homo sapiens uncharacterized LOC102724861 (LOC102724861), ncRNA'
p64
sS'530357572'
p65
S' PREDICTED: Homo sapiens uncharacterized LOC101927362 (LOC101927362), ncRNA'
p66
sS'578794820'
p67
S' PREDICTED: Homo sapiens uncharacterized LOC101928084 (LOC101928084), ncRNA'
p68
sS'578794829'
p69
S' PREDICTED: Homo sapiens uncharacterized LOC101928327 (LOC101928327), transcript variant X1, ncRNA'
p70
sS'578794828'
p71
S' PREDICTED: Homo sapiens uncharacterized LOC102723329 (LOC102723329), ncRNA'
p72
sS'530357773'
p73
S' PREDICTED: Homo sapiens tubulin alpha-3E chain-like (LOC101930571), mRNA'
p74
sS'530357771'
p75
S' PREDICTED: Homo sapiens basic proline-rich protein-like (LOC100506922), mRNA'
p76
sS'578794508'
p77
S' PREDICTED: Homo sapiens uncharacterized LOC102724017 (LOC102724017), transcript variant X4, ncRNA'
p78
sS'530357778'
p79
S' PREDICTED: Homo sapiens rho guanine nucleotide exchange factor 4-like (LOC101930241), transcript variant X2, mRNA'
p80
sS'341914248'
p81
S' PREDICTED: Homo sapiens uncharacterized LOC400743 (LOC400743), misc_RNA'
p82
sS'578794509'
p83
S' PREDICTED: Homo sapiens uncharacterized LOC100506161 (LOC100506161), transcript variant X2, ncRNA'
p84
sS'530358072'
p85
S' PREDICTED: Homo sapiens uncharacterized LOC101927518 (LOC101927518), transcript variant X2, ncRNA'
p86
sS'578794840'
p87
S' PREDICTED: Homo sapiens uncharacterized LOC101928513 (LOC101928513), transcript variant X1, ncRNA'
p88
sS'578794739'
p89
S' PREDICTED: Homo sapiens uncharacterized LOC100506797 (LOC100506797), transcript variant X2, ncRNA'
p90
sS'578794738'
p91
S' PREDICTED: Homo sapiens uncharacterized LOC101927764 (LOC101927764), transcript variant X4, ncRNA'
p92
sS'578794732'
p93
S' PREDICTED: Homo sapiens uncharacterized LOC101927330 (LOC101927330), transcript variant X3, ncRNA'
p94
sS'578794731'
p95
S' PREDICTED: Homo sapiens uncharacterized LOC101927330 (LOC101927330), transcript variant X1, ncRNA'
p96
sS'578794730'
p97
S' PREDICTED: Homo sapiens uncharacterized LOC102724955 (LOC102724955), ncRNA'
p98
sS'578794737'
p99
S' PREDICTED: Homo sapiens uncharacterized LOC101927764 (LOC101927764), transcript variant X3, ncRNA'
p100
sS'578794736'
p101
S' PREDICTED: Homo sapiens uncharacterized LOC101927764 (LOC101927764), transcript variant X1, ncRNA'
p102
sS'578794735'
p103
S' PREDICTED: Homo sapiens uncharacterized LOC101927764 (LOC101927764), transcript variant X2, ncRNA'
p104
sS'578794734'
p105
S' PREDICTED: Homo sapiens uncharacterized LOC100125918 (LOC100125918), misc_RNA'
p106
sS'530357978'
p107
S' PREDICTED: Homo sapiens uncharacterized LOC101929223 (LOC101929223), ncRNA'
p108
sS'530357974'
p109
S' PREDICTED: Homo sapiens uncharacterized LOC101929316 (LOC101929316), ncRNA'
p110
sS'530357976'
p111
S' PREDICTED: Homo sapiens uncharacterized LOC101929296 (LOC101929296), ncRNA'
p112
sS'578794609'
p113
S' PREDICTED: Homo sapiens uncharacterized LOC102723824 (LOC102723824), ncRNA'
p114
sS'578794608'
p115
S' PREDICTED: Homo sapiens uncharacterized LOC102723810 (LOC102723810), ncRNA'
p116
sS'578794607'
p117
S' PREDICTED: Homo sapiens uncharacterized LOC101929667 (LOC101929667), transcript variant X3, ncRNA'
p118
sS'578794606'
p119
S' PREDICTED: Homo sapiens uncharacterized LOC101929667 (LOC101929667), transcript variant X2, ncRNA'
p120
sS'578794605'
p121
S' PREDICTED: Homo sapiens uncharacterized LOC101929667 (LOC101929667), transcript variant X1, ncRNA'
p122
sS'530358381'
p123
S' PREDICTED: Homo sapiens uncharacterized LOC101927544 (LOC101927544), ncRNA'
p124
sS'578794603'
p125
S' PREDICTED: Homo sapiens uncharacterized LOC101929521 (LOC101929521), ncRNA'
p126
sS'157266267'
p127
S' Homo sapiens programmed cell death 6 pseudogene (LOC728613), non-coding RNA'
p128
sS'578794601'
p129
S' PREDICTED: Homo sapiens uncharacterized LOC102723594 (LOC102723594), ncRNA'
p130
sS'578794600'
p131
S' PREDICTED: Homo sapiens uncharacterized LOC101929386 (LOC101929386), transcript variant X2, ncRNA'
p132
sS'530357590'
p133
S' PREDICTED: Homo sapiens uncharacterized LOC101929531 (LOC101929531), ncRNA'
p134
sS'530357597'
p135
S' PREDICTED: Homo sapiens uncharacterized LOC100996549 (LOC100996549), ncRNA'
p136
sS'530357595'
p137
S' PREDICTED: Homo sapiens uncharacterized LOC100506317 (LOC100506317), transcript variant X1, ncRNA'
p138
sS'310114340'
p139
S' PREDICTED: Homo sapiens uncharacterized FLJ45964 (FLJ45964), misc_RNA'
p140
sS'578794548'
p141
S' PREDICTED: Homo sapiens uncharacterized LOC101927683 (RP11-66A2.2), transcript variant X1, ncRNA'
p142
sS'578794549'
p143
S' PREDICTED: Homo sapiens uncharacterized LOC101927711 (LOC101927711), ncRNA'
p144
sS'578794540'
p145
S' PREDICTED: Homo sapiens putative uncharacterized protein FLJ44672-like (LOC728728), mRNA'
p146
sS'578794541'
p147
S' PREDICTED: Homo sapiens uncharacterized LOC102723935 (LOC102723935), ncRNA'
p148
sS'578794542'
p149
S' PREDICTED: Homo sapiens uncharacterized LOC101927478 (RP4-613A2.1), transcript variant X2, ncRNA'
p150
sS'578794544'
p151
S' PREDICTED: Homo sapiens uncharacterized LOC101927504 (LOC101927504), transcript variant X2, ncRNA'
p152
sS'578794546'
p153
S' PREDICTED: Homo sapiens uncharacterized LOC102724026 (LOC102724026), ncRNA'
p154
sS'578794547'
p155
S' PREDICTED: Homo sapiens uncharacterized LOC102724041 (LOC102724041), ncRNA'
p156
sS'578795011'
p157
S' PREDICTED: Homo sapiens uncharacterized LOC285389 (LOC285389), transcript variant X3, misc_RNA'
p158
sS'578795010'
p159
S' PREDICTED: Homo sapiens uncharacterized LOC285389 (LOC285389), transcript variant X2, misc_RNA'
p160
sS'530358032'
p161
S' PREDICTED: Homo sapiens uncharacterized LOC101927725 (LOC101927725), ncRNA'
p162
sS'578795012'
p163
S' PREDICTED: Homo sapiens uncharacterized LOC285389 (LOC285389), transcript variant X4, misc_RNA'
p164
sS'578795015'
p165
S' PREDICTED: Homo sapiens uncharacterized LOC102724779 (LOC102724779), ncRNA'
p166
sS'210147586'
p167
S' Homo sapiens potassium channel tetramerization domain containing 5 pseudogene (LOC652276), non-coding RNA'
p168
sS'578795017'
p169
S' PREDICTED: Homo sapiens uncharacterized LOC101930524 (LOC101930524), ncRNA'
p170
sS'578795016'
p171
S' PREDICTED: Homo sapiens uncharacterized LOC101929152 (LOC101929152), ncRNA'
p172
sS'578795019'
p173
S' PREDICTED: Homo sapiens uncharacterized LOC101060141 (LOC101060141), transcript variant X2, ncRNA'
p174
sS'578795018'
p175
S' PREDICTED: Homo sapiens uncharacterized LOC101060141 (LOC101060141), transcript variant X1, ncRNA'
p176
sS'578795125'
p177
S' PREDICTED: Homo sapiens uncharacterized LOC102723846 (LOC102723846), ncRNA'
p178
sS'578795127'
p179
S' PREDICTED: Homo sapiens uncharacterized LOC101928667 (LOC101928667), ncRNA'
p180
sS'578795126'
p181
S' PREDICTED: Homo sapiens uncharacterized locus MGC42157 (MGC42157), transcript variant X2, misc_RNA'
p182
sS'578795121'
p183
S' PREDICTED: Homo sapiens uncharacterized LOC102723744 (LOC102723744), ncRNA'
p184
sS'578795120'
p185
S' PREDICTED: Homo sapiens uncharacterized LOC102725499 (LOC102725499), ncRNA'
p186
sS'578795122'
p187
S' PREDICTED: Homo sapiens uncharacterized LOC102723764 (LOC102723764), ncRNA'
p188
sS'373938422'
p189
S' Homo sapiens uncharacterized LOC646736 (LOC646736), long non-coding RNA'
p190
sS'578795129'
p191
S' PREDICTED: Homo sapiens uncharacterized LOC101928721 (LOC101928721), transcript variant X2, ncRNA'
p192
sS'578795128'
p193
S' PREDICTED: Homo sapiens uncharacterized LOC100508631 (LOC100508631), ncRNA'
p194
sS'578794478'
p195
S' PREDICTED: Homo sapiens uncharacterized LOC102725514 (LOC102725514), ncRNA'
p196
sS'578795239'
p197
S' PREDICTED: Homo sapiens uncharacterized LOC102724785 (LOC102724785), transcript variant X1, ncRNA'
p198
sS'578795238'
p199
S' PREDICTED: Homo sapiens uncharacterized LOC102724776 (LOC102724776), ncRNA'
p200
sS'578795231'
p201
S' PREDICTED: Homo sapiens uncharacterized LOC102724672 (LOC102724672), transcript variant X1, ncRNA'
p202
sS'578795230'
p203
S' PREDICTED: Homo sapiens hCG38984 (LOC345051), transcript variant X3, misc_RNA'
p204
sS'578795232'
p205
S' PREDICTED: Homo sapiens uncharacterized LOC102724672 (LOC102724672), transcript variant X2, ncRNA'
p206
sS'578795235'
p207
S' PREDICTED: Homo sapiens uncharacterized LOC100505685 (LOC100505685), transcript variant X2, ncRNA'
p208
sS'578795234'
p209
S' PREDICTED: Homo sapiens uncharacterized LOC102724700 (LOC102724700), ncRNA'
p210
sS'578795237'
p211
S' PREDICTED: Homo sapiens uncharacterized LOC101927947 (LOC101927947), transcript variant X2, ncRNA'
p212
sS'578795236'
p213
S' PREDICTED: Homo sapiens uncharacterized LOC101927947 (LOC101927947), transcript variant X1, ncRNA'
p214
sS'218505808'
p215
S' Homo sapiens uncharacterized LOC153684 (LOC153684), long non-coding RNA'
p216
sS'578794571'
p217
S' PREDICTED: Homo sapiens uncharacterized LOC100506317 (LOC100506317), transcript variant X2, ncRNA'
p218
sS'530357115'
p219
S' PREDICTED: Homo sapiens peptidyl-prolyl cis-trans isomerase A-like (LOC101060363), mRNA'
p220
sS'530357112'
p221
S' PREDICTED: Homo sapiens uncharacterized LOC644083 (LOC644083), misc_RNA'
p222
sS'530357110'
p223
S' PREDICTED: Homo sapiens aflatoxin B1 aldehyde reductase member 4-like (LOC101927930), mRNA'
p224
sS'311893296'
p225
S' Homo sapiens phosphodiesterase 4D interacting protein pseudogene (LOC653513), non-coding RNA'
p226
sS'154759243'
p227
S' Homo sapiens C-terminal binding protein 2 pseudogene (MGC70870), non-coding RNA'
p228
sS'530357119'
p229
S' PREDICTED: Homo sapiens uncharacterized LOC101928189 (LOC101928189), transcript variant X1, ncRNA'
p230
sS'578794944'
p231
S' PREDICTED: Homo sapiens uncharacterized LOC102723663 (LOC102723663), transcript variant X2, ncRNA'
p232
sS'578794945'
p233
S' PREDICTED: Homo sapiens uncharacterized LOC101929702 (LOC101929702), partial mRNA'
p234
sS'578794947'
p235
S' PREDICTED: Homo sapiens uncharacterized LOC102725450 (LOC102725450), mRNA'
p236
sS'578794940'
p237
S' PREDICTED: Homo sapiens uncharacterized LOC102725419 (LOC102725419), ncRNA'
p238
sS'578794942'
p239
S' PREDICTED: Homo sapiens uncharacterized LOC102725432 (LOC102725432), ncRNA'
p240
sS'578794943'
p241
S' PREDICTED: Homo sapiens uncharacterized LOC102723663 (LOC102723663), transcript variant X1, ncRNA'
p242
sS'530357608'
p243
S' PREDICTED: Homo sapiens protein GVQW1-like (LOC101926982), partial mRNA'
p244
sS'530357602'
p245
S' PREDICTED: Homo sapiens uncharacterized LOC101929752 (LOC101929752), ncRNA'
p246
sS'530357600'
p247
S' PREDICTED: Homo sapiens uncharacterized LOC101929715 (LOC101929715), ncRNA'
p248
sS'530357606'
p249
S' PREDICTED: Homo sapiens uncharacterized LOC101926952 (LOC101926952), ncRNA'
p250
sS'578794838'
p251
S' PREDICTED: Homo sapiens uncharacterized LOC101928662 (LOC101928662), transcript variant X2, ncRNA'
p252
sS'578794839'
p253
S' PREDICTED: Homo sapiens uncharacterized LOC102723421 (LOC102723421), ncRNA'
p254
sS'578794830'
p255
S' PREDICTED: Homo sapiens uncharacterized LOC101928327 (LOC101928327), transcript variant X4, ncRNA'
p256
sS'578794831'
p257
S' PREDICTED: Homo sapiens ubiquitin-conjugating enzyme E2 variant 1-like (LOC102723977), mRNA'
p258
sS'578794833'
p259
S' PREDICTED: Homo sapiens uncharacterized LOC101928374 (LOC101928374), transcript variant X1, ncRNA'
p260
sS'578794834'
p261
S' PREDICTED: Homo sapiens uncharacterized LOC101928374 (LOC101928374), transcript variant X2, ncRNA'
p262
sS'578794835'
p263
S' PREDICTED: Homo sapiens uncharacterized LOC102725407 (LOC102725407), transcript variant X1, ncRNA'
p264
sS'578794836'
p265
S' PREDICTED: Homo sapiens uncharacterized LOC102725407 (LOC102725407), transcript variant X2, ncRNA'
p266
sS'308081820'
p267
S' Homo sapiens Dexi homolog (mouse) pseudogene (LOC100289656), non-coding RNA'
p268
sS'223468703'
p269
S' Homo sapiens uncharacterized LOC79857 (FLJ13224), long non-coding RNA'
p270
sS'530357918'
p271
S' PREDICTED: Homo sapiens uncharacterized LOC93463 (AC105760.3), misc_RNA'
p272
sS'530357749'
p273
S' PREDICTED: Homo sapiens uncharacterized LOC101927330 (LOC101927330), transcript variant X2, ncRNA'
p274
sS'578794728'
p275
S' PREDICTED: Homo sapiens uncharacterized LOC101927400 (LOC101927400), ncRNA'
p276
sS'578794729'
p277
S' PREDICTED: Homo sapiens uncharacterized LOC101927382 (LOC101927382), ncRNA'
p278
sS'578794724'
p279
S' PREDICTED: Homo sapiens uncharacterized LOC101930489 (LOC101930489), transcript variant X1, ncRNA'
p280
sS'578794725'
p281
S' PREDICTED: Homo sapiens uncharacterized LOC101930489 (LOC101930489), transcript variant X2, ncRNA'
p282
sS'578794726'
p283
S' PREDICTED: Homo sapiens uncharacterized LOC101930489 (LOC101930489), transcript variant X3, ncRNA'
p284
sS'578794727'
p285
S' PREDICTED: Homo sapiens uncharacterized LOC101930489 (LOC101930489), transcript variant X4, ncRNA'
p286
sS'578794720'
p287
S' PREDICTED: Homo sapiens uncharacterized LOC102725405 (LOC102725405), transcript variant X8, ncRNA'
p288
sS'578794721'
p289
S' PREDICTED: Homo sapiens glycosylphosphatidylinositol anchor attachment 1 protein-like (LOC101930385), mRNA'
p290
sS'578794722'
p291
S' PREDICTED: Homo sapiens uncharacterized LOC102725516 (LOC102725516), mRNA'
p292
sS'530357909'
p293
S' PREDICTED: Homo sapiens uncharacterized LOC101928789 (LOC101928789), ncRNA'
p294
sS'530357908'
p295
S' PREDICTED: Homo sapiens uncharacterized LOC101928816 (LOC101928816), transcript variant X2, ncRNA'
p296
sS'530357907'
p297
S' PREDICTED: Homo sapiens uncharacterized LOC101928816 (LOC101928816), transcript variant X1, ncRNA'
p298
sS'530357900'
p299
S' PREDICTED: Homo sapiens uncharacterized LOC101928639 (LOC101928639), ncRNA'
p300
sS'299829288'
p301
S' Homo sapiens uncharacterized LOC400999 (FLJ42351), long non-coding RNA'
p302
sS'578794610'
p303
S' PREDICTED: Homo sapiens uncharacterized LOC102723845 (LOC102723845), ncRNA'
p304
sS'578794611'
p305
S' PREDICTED: Homo sapiens uncharacterized LOC102725386 (LOC102725386), ncRNA'
p306
sS'578794612'
p307
S' PREDICTED: Homo sapiens uncharacterized LOC102723854 (LOC102723854), ncRNA'
p308
sS'578794613'
p309
S' PREDICTED: Homo sapiens uncharacterized LOC101929763 (LOC101929763), transcript variant X2, ncRNA'
p310
sS'578794614'
p311
S' PREDICTED: Homo sapiens uncharacterized LOC101929763 (LOC101929763), transcript variant X3, ncRNA'
p312
sS'578794615'
p313
S' PREDICTED: Homo sapiens uncharacterized LOC102725399 (LOC102725399), ncRNA'
p314
sS'578794616'
p315
S' PREDICTED: Homo sapiens uncharacterized LOC102723947 (LOC102723947), ncRNA'
p316
sS'578794617'
p317
S' PREDICTED: Homo sapiens uncharacterized LOC102725420 (LOC102725420), ncRNA'
p318
sS'578794618'
p319
S' PREDICTED: Homo sapiens uncharacterized LOC102724008 (LOC102724008), ncRNA'
p320
sS'578794619'
p321
S' PREDICTED: Homo sapiens uncharacterized LOC101927089 (LOC101927089), transcript variant X1, ncRNA'
p322
sS'335057516'
p323
S' Homo sapiens uncharacterized LOC284365 (MGC45922), long non-coding RNA'
p324
sS'578794539'
p325
S' PREDICTED: Homo sapiens helicase SRCAP-like (LOC101930466), misc_RNA'
p326
sS'578794538'
p327
S' PREDICTED: Homo sapiens F-box only protein 25-like (LOC101060626), transcript variant X2, misc_RNA'
p328
sS'578794535'
p329
S' PREDICTED: Homo sapiens uncharacterized LOC101927185 (LOC101927185), ncRNA'
p330
sS'578794534'
p331
S' PREDICTED: Homo sapiens uncharacterized LOC102723817 (LOC102723817), ncRNA'
p332
sS'578794537'
p333
S' PREDICTED: Homo sapiens F-box only protein 25-like (LOC101060626), transcript variant X1, misc_RNA'
p334
sS'578794536'
p335
S' PREDICTED: Homo sapiens uncharacterized LOC101930657 (LOC101930657), ncRNA'
p336
sS'578794531'
p337
S' PREDICTED: Homo sapiens uncharacterized LOC102724046 (LOC102724046), ncRNA'
p338
sS'578794530'
p339
S' PREDICTED: Homo sapiens uncharacterized LOC101929385 (LOC101929385), transcript variant X6, ncRNA'
p340
sS'578794533'
p341
S' PREDICTED: Homo sapiens uncharacterized LOC102723834 (LOC102723834), ncRNA'
p342
sS'578794532'
p343
S' PREDICTED: Homo sapiens uncharacterized LOC101927247 (LOC101927247), transcript variant X2, ncRNA'
p344
sS'578795002'
p345
S' PREDICTED: Homo sapiens uncharacterized LOC100132731 (LOC100132731), transcript variant X1, mRNA'
p346
sS'228480224'
p347
S' Homo sapiens four and a half LIM domains 1 pseudogene (LOC100128164), transcript variant 2, non-coding RNA'
p348
sS'578795000'
p349
S' PREDICTED: Homo sapiens uncharacterized LOC100132731 (LOC100132731), transcript variant X2, mRNA'
p350
sS'530358040'
p351
S' PREDICTED: Homo sapiens uncharacterized LOC101927467 (LOC101927467), ncRNA'
p352
sS'578795004'
p353
S' PREDICTED: Homo sapiens uncharacterized LOC100132731 (LOC100132731), transcript variant X3, mRNA'
p354
sS'578795008'
p355
S' PREDICTED: Homo sapiens uncharacterized LOC102724877 (LOC102724877), ncRNA'
p356
sS'578795009'
p357
S' PREDICTED: Homo sapiens uncharacterized LOC285389 (LOC285389), transcript variant X1, misc_RNA'
p358
sS'539849146'
p359
S' Homo sapiens uncharacterized LOC149684 (LOC149684), long non-coding RNA'
p360
sS'578794282'
p361
S' PREDICTED: Homo sapiens TBC1 domain family member 3H-like (LOC101928566), mRNA'
p362
sS'578794287'
p363
S' PREDICTED: Homo sapiens uncharacterized LOC101928189 (LOC101928189), transcript variant X2, ncRNA'
p364
sS'578794285'
p365
S' PREDICTED: Homo sapiens uncharacterized LOC100996511 (RP5-1057J7.6), ncRNA'
p366
sS'578794284'
p367
S' PREDICTED: Homo sapiens uncharacterized LOC102723558 (LOC102723558), ncRNA'
p368
sS'578794289'
p369
S' PREDICTED: Homo sapiens uncharacterized LOC101928216 (LOC101928216), transcript variant X5, ncRNA'
p370
sS'578794288'
p371
S' PREDICTED: Homo sapiens uncharacterized LOC101928216 (LOC101928216), transcript variant X4, ncRNA'
p372
sS'578794441'
p373
S' PREDICTED: Homo sapiens uncharacterized LOC101927886 (LOC101927886), ncRNA'
p374
sS'578794440'
p375
S' PREDICTED: Homo sapiens uncharacterized LOC102724012 (LOC102724012), ncRNA'
p376
sS'578794443'
p377
S' PREDICTED: Homo sapiens uncharacterized LOC101928059 (LOC101928059), transcript variant X2, ncRNA'
p378
sS'578794442'
p379
S' PREDICTED: Homo sapiens uncharacterized LOC101928059 (LOC101928059), transcript variant X1, ncRNA'
p380
sS'578794445'
p381
S' PREDICTED: Homo sapiens UPF0607 protein ENSP00000383783-like (LOC100131107), mRNA'
p382
sS'578794444'
p383
S' PREDICTED: Homo sapiens uncharacterized LOC101928059 (LOC101928059), transcript variant X3, ncRNA'
p384
sS'578794447'
p385
S' PREDICTED: Homo sapiens uncharacterized LOC729867 (RP11-536C5.7), misc_RNA'
p386
sS'578794449'
p387
S' PREDICTED: Homo sapiens uncharacterized LOC101928264 (LOC101928264), transcript variant X2, ncRNA'
p388
sS'578794448'
p389
S' PREDICTED: Homo sapiens uncharacterized LOC101928264 (LOC101928264), transcript variant X1, ncRNA'
p390
sS'578795136'
p391
S' PREDICTED: Homo sapiens uncharacterized LOC101927133 (LOC101927133), transcript variant X3, ncRNA'
p392
sS'578795134'
p393
S' PREDICTED: Homo sapiens uncharacterized LOC101927133 (LOC101927133), transcript variant X2, ncRNA'
p394
sS'578795135'
p395
S' PREDICTED: Homo sapiens uncharacterized LOC101927133 (LOC101927133), transcript variant X1, ncRNA'
p396
sS'578795132'
p397
S' PREDICTED: Homo sapiens uncharacterized LOC102723415 (LOC102723415), ncRNA'
p398
sS'578795133'
p399
S' PREDICTED: Homo sapiens uncharacterized LOC102723497 (LOC102723497), ncRNA'
p400
sS'578795130'
p401
S' PREDICTED: Homo sapiens uncharacterized LOC101928721 (LOC101928721), transcript variant X1, ncRNA'
p402
sS'578795131'
p403
S' PREDICTED: Homo sapiens uncharacterized LOC101928721 (LOC101928721), transcript variant X3, ncRNA'
p404
sS'339275857'
p405
S' Homo sapiens nuclear pore associated protein 1 pseudogene (LOC392364), non-coding RNA'
p406
sS'578795138'
p407
S' PREDICTED: Homo sapiens uncharacterized LOC101927179 (LOC101927179), transcript variant X3, ncRNA'
p408
sS'559098524'
p409
S' Homo sapiens uncharacterized LOC102467216 (LOC102467216), long non-coding RNA'
p410
sS'305632792'
p411
S' Homo sapiens testis expressed sequence 13-like (LOC100129520), mRNA'
p412
sS'578795228'
p413
S' PREDICTED: Homo sapiens 5E5 antigen-like (LOC101927681), mRNA'
p414
sS'578795229'
p415
S' PREDICTED: Homo sapiens hCG38984 (LOC345051), transcript variant X2, misc_RNA'
p416
sS'578795222'
p417
S' PREDICTED: Homo sapiens uncharacterized LOC101927451 (LOC101927451), transcript variant X1, ncRNA'
p418
sS'22546031'
p419
S' Homo sapiens RNA, U86 small nucleolar (RNU86), small nucleolar RNA'
p420
sS'578795220'
p421
S' PREDICTED: Homo sapiens uncharacterized LOC101927414 (LOC101927414), transcript variant X4, ncRNA'
p422
sS'578795221'
p423
S' PREDICTED: Homo sapiens uncharacterized LOC102725306 (LOC102725306), ncRNA'
p424
sS'578795226'
p425
S' PREDICTED: Homo sapiens uncharacterized LOC100507639 (RP11-362F19.1), transcript variant X2, ncRNA'
p426
sS'578795227'
p427
S' PREDICTED: Homo sapiens uncharacterized LOC101927613 (LOC101927613), ncRNA'
p428
sS'578795224'
p429
S' PREDICTED: Homo sapiens uncharacterized LOC102724501 (LOC102724501), transcript variant X2, ncRNA'
p430
sS'578795225'
p431
S' PREDICTED: Homo sapiens uncharacterized LOC100507639 (RP11-362F19.1), transcript variant X1, ncRNA'
p432
sS'310114108'
p433
S' PREDICTED: Homo sapiens uncharacterized LOC100506405 (LOC100506405), transcript variant 1, ncRNA'
p434
sS'578794488'
p435
S' PREDICTED: Homo sapiens uncharacterized LOC101929044 (LOC101929044), ncRNA'
p436
sS'578794268'
p437
S' PREDICTED: Homo sapiens uncharacterized LOC102724856 (LOC102724856), transcript variant X2, ncRNA'
p438
sS'578794267'
p439
S' PREDICTED: Homo sapiens uncharacterized LOC102724856 (LOC102724856), transcript variant X1, ncRNA'
p440
sS'530357122'
p441
S' PREDICTED: Homo sapiens uncharacterized LOC101928216 (LOC101928216), transcript variant X3, ncRNA'
p442
sS'223890249'
p443
S' Homo sapiens uncharacterized protein FLJ23867 (FLJ23867), long non-coding RNA'
p444
sS'336455057'
p445
S' Homo sapiens uncharacterized LOC286189 (LOC286189), long non-coding RNA'
p446
sS'530357634'
p447
S' PREDICTED: Homo sapiens uncharacterized LOC100996902 (LOC100996902), ncRNA'
p448
sS'157412239'
p449
S' Homo sapiens hCG1645220 (LOC728819), mRNA'
p450
sS'530357630'
p451
S' PREDICTED: Homo sapiens uncharacterized LOC101929500 (LOC101929500), ncRNA'
p452
sS'578794849'
p453
S' PREDICTED: Homo sapiens uncharacterized LOC102725368 (LOC102725368), transcript variant X2, ncRNA'
p454
sS'578794848'
p455
S' PREDICTED: Homo sapiens uncharacterized LOC102725368 (LOC102725368), transcript variant X1, ncRNA'
p456
sS'578794845'
p457
S' PREDICTED: Homo sapiens uncharacterized LOC101928816 (LOC101928816), transcript variant X3, ncRNA'
p458
sS'578794844'
p459
S' PREDICTED: Homo sapiens uncharacterized LOC101928487 (LOC101928487), ncRNA'
p460
sS'578794847'
p461
S' PREDICTED: Homo sapiens uncharacterized LOC102723537 (LOC102723537), transcript variant X2, ncRNA'
p462
sS'578794846'
p463
S' PREDICTED: Homo sapiens uncharacterized LOC102723537 (LOC102723537), transcript variant X1, ncRNA'
p464
sS'578794841'
p465
S' PREDICTED: Homo sapiens uncharacterized LOC101928513 (LOC101928513), transcript variant X2, ncRNA'
p466
sS'117938298'
p467
S' Homo sapiens RAB6C-like (WTH3DI), mRNA'
p468
sS'578794842'
p469
S' PREDICTED: Homo sapiens uncharacterized LOC101928513 (LOC101928513), transcript variant X3, ncRNA'
p470
sS'530357758'
p471
S' PREDICTED: Homo sapiens uncharacterized LOC101927614 (LOC101927614), mRNA'
p472
sS'530357750'
p473
S' PREDICTED: Homo sapiens serine/arginine repetitive matrix protein 3-like (LOC101930279), mRNA'
p474
sS'211971077'
p475
S' Homo sapiens uncharacterized LOC100192386 (FLJ16779), long non-coding RNA'
p476
sS'530357755'
p477
S' PREDICTED: Homo sapiens uncharacterized LOC101927734 (LOC101927734), ncRNA'
p478
sS'530357757'
p479
S' PREDICTED: Homo sapiens uncharacterized LOC100506797 (LOC100506797), transcript variant X1, ncRNA'
p480
sS'318065125'
p481
S' Homo sapiens DKFZp434H1419 (PKI55), long non-coding RNA'
p482
sS'42789379'
p483
S' Homo sapiens selenoprotein T (SELT), mRNA'
p484
sS'224465245'
p485
S' Homo sapiens uncharacterized LOC284578 (LOC284578), long non-coding RNA'
p486
sS'578794999'
p487
S' PREDICTED: Homo sapiens uncharacterized LOC102723759 (LOC102723759), ncRNA'
p488
sS'530357919'
p489
S' PREDICTED: Homo sapiens uncharacterized LOC101927958 (LOC101927958), ncRNA'
p490
sS'578794996'
p491
S' PREDICTED: Homo sapiens uncharacterized LOC101927149 (RP11-59J16.1), transcript variant X2, ncRNA'
p492
sS'578794995'
p493
S' PREDICTED: Homo sapiens uncharacterized LOC101926983 (LOC101926983), transcript variant X2, ncRNA'
p494
sS'578794994'
p495
S' PREDICTED: Homo sapiens uncharacterized LOC101927010 (LOC101927010), ncRNA'
p496
sS'578794993'
p497
S' PREDICTED: Homo sapiens uncharacterized LOC102725518 (LOC102725518), ncRNA'
p498
sS'578794992'
p499
S' PREDICTED: Homo sapiens uncharacterized LOC102723597 (LOC102723597), ncRNA'
p500
sS'530357910'
p501
S' PREDICTED: Homo sapiens uncharacterized LOC101928765 (LOC101928765), ncRNA'
p502
sS'578794990'
p503
S' PREDICTED: Homo sapiens uncharacterized LOC101927028 (LOC101927028), transcript variant X6, ncRNA'
p504
sS'530358361'
p505
S' PREDICTED: Homo sapiens uncharacterized LOC101927163 (LOC101927163), ncRNA'
p506
sS'578794664'
p507
S' PREDICTED: Homo sapiens putative aquaporin-7-like protein 3-like (LOC100509620), transcript variant X4, mRNA'
p508
sS'578794666'
p509
S' PREDICTED: Homo sapiens putative aquaporin-7-like protein 3-like (LOC100509620), transcript variant X5, mRNA'
p510
sS'578794660'
p511
S' PREDICTED: Homo sapiens uncharacterized LOC102725453 (LOC102725453), mRNA'
p512
sS'578794663'
p513
S' PREDICTED: Homo sapiens putative aquaporin-7-like protein 3-like (LOC100509620), transcript variant X3, mRNA'
p514
sS'578794662'
p515
S' PREDICTED: Homo sapiens uncharacterized LOC102725526 (LOC102725526), ncRNA'
p516
sS'578794668'
p517
S' PREDICTED: Homo sapiens putative aquaporin-7-like protein 3-like (LOC100509620), transcript variant X6, mRNA'
p518
sS'530358405'
p519
S' PREDICTED: Homo sapiens uncharacterized LOC101928223 (RP11-789C1.1), transcript variant X1, ncRNA'
p520
sS'530358407'
p521
S' PREDICTED: Homo sapiens uncharacterized LOC100506107 (LOC100506107), ncRNA'
p522
sS'530358406'
p523
S' PREDICTED: Homo sapiens uncharacterized LOC101928223 (RP11-789C1.1), transcript variant X2, ncRNA'
p524
sS'530358401'
p525
S' PREDICTED: Homo sapiens uncharacterized LOC101928081 (LOC101928081), ncRNA'
p526
sS'578794528'
p527
S' PREDICTED: Homo sapiens uncharacterized LOC101929385 (LOC101929385), transcript variant X4, ncRNA'
p528
sS'578794529'
p529
S' PREDICTED: Homo sapiens uncharacterized LOC101929385 (LOC101929385), transcript variant X5, ncRNA'
p530
sS'578794527'
p531
S' PREDICTED: Homo sapiens uncharacterized LOC101930114 (LOC101930114), ncRNA'
p532
sS'578794523'
p533
S' PREDICTED: Homo sapiens uncharacterized LOC102723761 (LOC102723761), ncRNA'
p534
sS'578795037'
p535
S' PREDICTED: Homo sapiens cytokine receptor CRL2 (RP11-379F4.4), misc_RNA'
p536
sS'578795036'
p537
S' PREDICTED: Homo sapiens uncharacterized LOC102724419 (LOC102724419), ncRNA'
p538
sS'578795035'
p539
S' PREDICTED: Homo sapiens uncharacterized LOC102724479 (LOC102724479), ncRNA'
p540
sS'578795033'
p541
S' PREDICTED: Homo sapiens uncharacterized LOC101928856 (LOC101928856), transcript variant X2, ncRNA'
p542
sS'578795031'
p543
S' PREDICTED: Homo sapiens uncharacterized LOC102724617 (LOC102724617), ncRNA'
p544
sS'578795030'
p545
S' PREDICTED: Homo sapiens uncharacterized LOC102724628 (LOC102724628), ncRNA'
p546
sS'578795039'
p547
S' PREDICTED: Homo sapiens uncharacterized LOC101928236 (LOC101928236), transcript variant X2, ncRNA'
p548
sS'578795038'
p549
S' PREDICTED: Homo sapiens uncharacterized LOC102724384 (LOC102724384), ncRNA'
p550
sS'530358117'
p551
S' PREDICTED: Homo sapiens uncharacterized LOC101926983 (LOC101926983), transcript variant X1, ncRNA'
p552
sS'578794823'
p553
S' PREDICTED: Homo sapiens uncharacterized LOC100507554 (LOC100507554), transcript variant X3, ncRNA'
p554
sS'530358115'
p555
S' PREDICTED: Homo sapiens uncharacterized LOC101927028 (LOC101927028), transcript variant X2, ncRNA'
p556
sS'310114251'
p557
S' PREDICTED: Homo sapiens uncharacterized LOC100507460 (LOC100507460), misc_RNA'
p558
sS'578794294'
p559
S' PREDICTED: Homo sapiens uncharacterized LOC102725410 (LOC102725410), transcript variant X1, ncRNA'
p560
sS'578794295'
p561
S' PREDICTED: Homo sapiens uncharacterized LOC102725410 (LOC102725410), transcript variant X2, ncRNA'
p562
sS'578794296'
p563
S' PREDICTED: Homo sapiens uncharacterized LOC102725410 (LOC102725410), transcript variant X3, ncRNA'
p564
sS'578794297'
p565
S' PREDICTED: Homo sapiens uncharacterized LOC102725413 (LOC102725413), ncRNA'
p566
sS'578794290'
p567
S' PREDICTED: Homo sapiens uncharacterized LOC101928303 (LOC101928303), transcript variant X2, ncRNA'
p568
sS'530358058'
p569
S' PREDICTED: Homo sapiens uncharacterized LOC101927249 (LOC101927249), transcript variant X2, ncRNA'
p570
sS'578794292'
p571
S' PREDICTED: Homo sapiens uncharacterized LOC101928391 (LOC101928391), ncRNA'
p572
sS'578794293'
p573
S' PREDICTED: Homo sapiens uncharacterized LOC102723760 (LOC102723760), ncRNA'
p574
sS'578794298'
p575
S' PREDICTED: Homo sapiens uncharacterized LOC102725522 (LOC102725522), ncRNA'
p576
sS'578794299'
p577
S' PREDICTED: Homo sapiens uncharacterized LOC101929901 (LOC101929901), transcript variant X1, ncRNA'
p578
sS'578794452'
p579
S' PREDICTED: Homo sapiens uncharacterized LOC102724222 (LOC102724222), ncRNA'
p580
sS'578794453'
p581
S' PREDICTED: Homo sapiens uncharacterized LOC102724206 (LOC102724206), ncRNA'
p582
sS'578794450'
p583
S' PREDICTED: Homo sapiens uncharacterized LOC101928264 (LOC101928264), transcript variant X3, ncRNA'
p584
sS'578795108'
p585
S' PREDICTED: Homo sapiens uncharacterized LOC102723496 (LOC102723496), ncRNA'
p586
sS'578794456'
p587
S' PREDICTED: Homo sapiens uncharacterized LOC102724466 (LOC102724466), ncRNA'
p588
sS'578794457'
p589
S' PREDICTED: Homo sapiens uncharacterized LOC101928512 (LOC101928512), transcript variant X4, ncRNA'
p590
sS'578794454'
p591
S' PREDICTED: Homo sapiens uncharacterized LOC101928177 (LOC101928177), transcript variant X2, ncRNA'
p592
sS'578794455'
p593
S' PREDICTED: Homo sapiens collagen alpha-1(III) chain-like (LOC101928120), mRNA'
p594
sS'578795103'
p595
S' PREDICTED: Homo sapiens uncharacterized LOC102723827 (LOC102723827), ncRNA'
p596
sS'578795102'
p597
S' PREDICTED: Homo sapiens uncharacterized LOC101928237 (LOC101928237), transcript variant X1, ncRNA'
p598
sS'578795101'
p599
S' PREDICTED: Homo sapiens uncharacterized LOC101928237 (LOC101928237), transcript variant X2, ncRNA'
p600
sS'578794459'
p601
S' PREDICTED: Homo sapiens uncharacterized LOC102724387 (LOC102724387), transcript variant X1, ncRNA'
p602
sS'578795107'
p603
S' PREDICTED: Homo sapiens uncharacterized LOC101928948 (LOC101928948), transcript variant X4, ncRNA'
p604
sS'578795106'
p605
S' PREDICTED: Homo sapiens uncharacterized LOC101928948 (LOC101928948), transcript variant X3, ncRNA'
p606
sS'578795105'
p607
S' PREDICTED: Homo sapiens uncharacterized LOC101928948 (LOC101928948), transcript variant X2, ncRNA'
p608
sS'211938459'
p609
S' Homo sapiens DEAD/H (Asp-Glu-Ala-Asp/His) box polypeptide 11-like (LOC642846), long non-coding RNA'
p610
sS'333360892'
p611
S' Homo sapiens u3 small nucleolar ribonucleoprotein protein MPP10-like (LOC643802), mRNA'
p612
sS'310114631'
p613
S' PREDICTED: Homo sapiens uncharacterized LOC100506253 (LOC100506253), ncRNA'
p614
sS'578795219'
p615
S' PREDICTED: Homo sapiens uncharacterized LOC101927414 (LOC101927414), transcript variant X3, ncRNA'
p616
sS'578795217'
p617
S' PREDICTED: Homo sapiens uncharacterized LOC101927305 (RP11-614F17.2), transcript variant X2, ncRNA'
p618
sS'578795216'
p619
S' PREDICTED: Homo sapiens uncharacterized LOC101927305 (RP11-614F17.2), transcript variant X1, ncRNA'
p620
sS'578795215'
p621
S' PREDICTED: Homo sapiens uncharacterized LOC102724353 (LOC102724353), ncRNA'
p622
sS'578795214'
p623
S' PREDICTED: Homo sapiens uncharacterized LOC102724326 (LOC102724326), ncRNA'
p624
sS'578795213'
p625
S' PREDICTED: Homo sapiens uncharacterized LOC102724309 (LOC102724309), ncRNA'
p626
sS'578795212'
p627
S' PREDICTED: Homo sapiens uncharacterized LOC100507487 (LOC100507487), transcript variant X3, ncRNA'
p628
sS'578795211'
p629
S' PREDICTED: Homo sapiens uncharacterized LOC101927184 (RP11-420A23.1), transcript variant X1, ncRNA'
p630
sS'578795210'
p631
S' PREDICTED: Homo sapiens uncharacterized LOC102724210 (LOC102724210), ncRNA'
p632
sS'148225708'
p633
S' Homo sapiens bromodomain, testis-specific pseudogene (LOC643486), non-coding RNA'
p634
sS'578794273'
p635
S' PREDICTED: Homo sapiens uncharacterized LOC102724910 (LOC102724910), transcript variant X1, ncRNA'
p636
sS'578794276'
p637
S' PREDICTED: Homo sapiens uncharacterized LOC101927417 (LOC101927417), transcript variant X2, ncRNA'
p638
sS'578794277'
p639
S' PREDICTED: Homo sapiens uncharacterized LOC101927417 (LOC101927417), transcript variant X1, ncRNA'
p640
sS'578794274'
p641
S' PREDICTED: Homo sapiens uncharacterized LOC102724910 (LOC102724910), transcript variant X2, ncRNA'
p642
sS'578794275'
p643
S' PREDICTED: Homo sapiens uncharacterized LOC101927441 (LOC101927441), transcript variant X1, ncRNA'
p644
sS'213688368'
p645
S' Homo sapiens uncharacterized LOC645644 (FLJ42627), long non-coding RNA'
p646
sS'223941851'
p647
S' Homo sapiens uncharacterized LOC100133669 (LOC100133669), long non-coding RNA'
p648
sS'530357133'
p649
S' PREDICTED: Homo sapiens collagen alpha-1(III) chain-like (LOC101928728), mRNA'
p650
sS'578795007'
p651
S' PREDICTED: Homo sapiens uncharacterized LOC101929337 (RP11-513G11.3), transcript variant X2, ncRNA'
p652
sS'530357981'
p653
S' PREDICTED: Homo sapiens uncharacterized LOC101929138 (LOC101929138), ncRNA'
p654
sS'530357620'
p655
S' PREDICTED: Homo sapiens uncharacterized LOC101929251 (LOC101929251), transcript variant X1, ncRNA'
p656
sS'530357621'
p657
S' PREDICTED: Homo sapiens uncharacterized LOC101929272 (LOC101929272), transcript variant X1, ncRNA'
p658
sS'530357623'
p659
S' PREDICTED: Homo sapiens uncharacterized LOC100505774 (LOC100505774), ncRNA'
p660
sS'530357626'
p661
S' PREDICTED: Homo sapiens uncharacterized LOC101930384 (LOC101930384), ncRNA'
p662
sS'530357627'
p663
S' PREDICTED: Homo sapiens uncharacterized LOC285043 (LOC285043), misc_RNA'
p664
sS'530357628'
p665
S' PREDICTED: Homo sapiens uncharacterized LOC101929456 (LOC101929456), ncRNA'
p666
sS'530357629'
p667
S' PREDICTED: Homo sapiens uncharacterized LOC101929477 (LOC101929477), ncRNA'
p668
sS'578794856'
p669
S' PREDICTED: Homo sapiens uncharacterized LOC101930480 (LOC101930480), mRNA'
p670
sS'578794854'
p671
S' PREDICTED: Homo sapiens dnaJ homolog subfamily B member 3-like (LOC101927831), misc_RNA'
p672
sS'578794855'
p673
S' PREDICTED: Homo sapiens uncharacterized LOC101927896 (LOC101927896), ncRNA'
p674
sS'578794852'
p675
S' PREDICTED: Homo sapiens uncharacterized LOC101928854 (LOC101928854), ncRNA'
p676
sS'578794853'
p677
S' PREDICTED: Homo sapiens uncharacterized LOC102725310 (LOC102725310), ncRNA'
p678
sS'578794850'
p679
S' PREDICTED: Homo sapiens uncharacterized LOC102725368 (LOC102725368), transcript variant X3, ncRNA'
p680
sS'578794851'
p681
S' PREDICTED: Homo sapiens uncharacterized LOC101928881 (LOC101928881), ncRNA'
p682
sS'578794451'
p683
S' PREDICTED: Homo sapiens uncharacterized LOC101928202 (RP11-85G21.2), ncRNA'
p684
sS'530357725'
p685
S' PREDICTED: Homo sapiens uncharacterized LOC101927383 (LOC101927383), ncRNA'
p686
sS'530357727'
p687
S' PREDICTED: Homo sapiens uncharacterized LOC101927331 (LOC101927331), ncRNA'
p688
sS'530357721'
p689
S' PREDICTED: Homo sapiens uncharacterized LOC100506473 (LOC100506473), transcript variant X1, ncRNA'
p690
sS'211938451'
p691
S' Homo sapiens MAP/microtubule affinity-regulating kinase 1 pseudogene (FLJ25758), non-coding RNA'
p692
sS'578794458'
p693
S' PREDICTED: Homo sapiens uncharacterized LOC102725304 (LOC102725304), ncRNA'
p694
sS'530358281'
p695
S' PREDICTED: Homo sapiens uncharacterized LOC101927095 (LOC101927095), ncRNA'
p696
sS'530358286'
p697
S' PREDICTED: Homo sapiens uncharacterized LOC101927276 (LOC101927276), mRNA'
p698
sS'530358289'
p699
S' PREDICTED: Homo sapiens uncharacterized LOC101928658 (LOC101928658), transcript variant X1, ncRNA'
p700
sS'578795104'
p701
S' PREDICTED: Homo sapiens uncharacterized LOC101928532 (RP11-1338A24.1), ncRNA'
p702
sS'530357923'
p703
S' PREDICTED: Homo sapiens uncharacterized LOC101928111 (LOC101928111), transcript variant X1, ncRNA'
p704
sS'530357922'
p705
S' PREDICTED: Homo sapiens uncharacterized LOC100287387 (LOC100287387), mRNA'
p706
sS'578794982'
p707
S' PREDICTED: Homo sapiens uncharacterized LOC102723696 (LOC102723696), transcript variant X1, ncRNA'
p708
sS'578794983'
p709
S' PREDICTED: Homo sapiens uncharacterized LOC102723696 (LOC102723696), transcript variant X2, ncRNA'
p710
sS'578794984'
p711
S' PREDICTED: Homo sapiens uncharacterized LOC101927056 (RP11-379B18.5), transcript variant X2, ncRNA'
p712
sS'530357926'
p713
S' PREDICTED: Homo sapiens uncharacterized LOC101927147 (LOC101927147), ncRNA'
p714
sS'530357925'
p715
S' PREDICTED: Homo sapiens uncharacterized LOC101928111 (LOC101928111), transcript variant X3, ncRNA'
p716
sS'530357924'
p717
S' PREDICTED: Homo sapiens uncharacterized LOC101928111 (LOC101928111), transcript variant X2, ncRNA'
p718
sS'578794988'
p719
S' PREDICTED: Homo sapiens uncharacterized LOC101927028 (LOC101927028), transcript variant X4, ncRNA'
p720
sS'578794989'
p721
S' PREDICTED: Homo sapiens uncharacterized LOC101927028 (LOC101927028), transcript variant X5, ncRNA'
p722
sS'300796389'
p723
S' Homo sapiens uncharacterized LOC149950 (LOC149950), long non-coding RNA'
p724
sS'221219005'
p725
S' Homo sapiens cysteine and histidine-rich domain (CHORD) containing 1 pseudogene (LOC727896), non-coding RNA'
p726
sS'530358197'
p727
S' PREDICTED: Homo sapiens uncharacterized LOC100507291 (RP11-319G6.1), transcript variant X4, ncRNA'
p728
sS'530358191'
p729
S' PREDICTED: Homo sapiens uncharacterized LOC101927866 (LOC101927866), ncRNA'
p730
sS'578794676'
p731
S' PREDICTED: Homo sapiens putative aquaporin-7-like protein 3-like (LOC100509620), transcript variant X10, misc_RNA'
p732
sS'578794677'
p733
S' PREDICTED: Homo sapiens putative aquaporin-7-like protein 3-like (LOC100509620), transcript variant X11, misc_RNA'
p734
sS'578794674'
p735
S' PREDICTED: Homo sapiens putative aquaporin-7-like protein 3-like (LOC100509620), transcript variant X2, mRNA'
p736
sS'578794675'
p737
S' PREDICTED: Homo sapiens putative aquaporin-7-like protein 3-like (LOC100509620), transcript variant X9, misc_RNA'
p738
sS'578794672'
p739
S' PREDICTED: Homo sapiens putative aquaporin-7-like protein 3-like (LOC100509620), transcript variant X8, mRNA'
p740
sS'310114136'
p741
S' PREDICTED: Homo sapiens uncharacterized LOC100506047 (LOC100506047), ncRNA'
p742
sS'578794670'
p743
S' PREDICTED: Homo sapiens putative aquaporin-7-like protein 3-like (LOC100509620), transcript variant X7, mRNA'
p744
sS'578794678'
p745
S' PREDICTED: Homo sapiens putative aquaporin-7-like protein 3-like (LOC100509620), transcript variant X12, misc_RNA'
p746
sS'578794679'
p747
S' PREDICTED: Homo sapiens putative aquaporin-7-like protein 3-like (LOC100509620), transcript variant X13, misc_RNA'
p748
sS'578795028'
p749
S' PREDICTED: Homo sapiens uncharacterized LOC100505710 (LOC100505710), mRNA'
p750
sS'578794512'
p751
S' PREDICTED: Homo sapiens uncharacterized LOC102725446 (LOC102725446), ncRNA'
p752
sS'578794511'
p753
S' PREDICTED: Homo sapiens uncharacterized LOC102723986 (LOC102723986), transcript variant X2, ncRNA'
p754
sS'578794510'
p755
S' PREDICTED: Homo sapiens uncharacterized LOC102723986 (LOC102723986), transcript variant X1, ncRNA'
p756
sS'578794516'
p757
S' PREDICTED: Homo sapiens uncharacterized LOC102723886 (LOC102723886), ncRNA'
p758
sS'578794515'
p759
S' PREDICTED: Homo sapiens uncharacterized LOC101929713 (LOC101929713), transcript variant X2, ncRNA'
p760
sS'578794514'
p761
S' PREDICTED: Homo sapiens uncharacterized LOC101929713 (LOC101929713), transcript variant X1, ncRNA'
p762
sS'578795020'
p763
S' PREDICTED: Homo sapiens uncharacterized LOC102724756 (LOC102724756), ncRNA'
p764
sS'578795021'
p765
S' PREDICTED: Homo sapiens uncharacterized LOC102725272 (LOC102725272), ncRNA'
p766
sS'578794519'
p767
S' PREDICTED: Homo sapiens uncharacterized LOC102723802 (LOC102723802), ncRNA'
p768
sS'578794518'
p769
S' PREDICTED: Homo sapiens uncharacterized LOC101929612 (LOC101929612), ncRNA'
p770
sS'578795024'
p771
S' PREDICTED: Homo sapiens uncharacterized LOC102724686 (LOC102724686), ncRNA'
p772
sS'578795025'
p773
S' PREDICTED: Homo sapiens uncharacterized LOC101929018 (LOC101929018), transcript variant X1, ncRNA'
p774
sS'530358065'
p775
S' PREDICTED: Homo sapiens uncharacterized LOC728290 (LOC728290), transcript variant X1, ncRNA'
p776
sS'578795027'
p777
S' PREDICTED: Homo sapiens uncharacterized LOC101929018 (LOC101929018), transcript variant X3, ncRNA'
p778
sS'530358269'
p779
S' PREDICTED: Homo sapiens uncharacterized LOC101929161 (LOC101929161), transcript variant X2, ncRNA'
p780
sS'530358262'
p781
S' PREDICTED: Homo sapiens uncharacterized LOC101928948 (LOC101928948), transcript variant X1, ncRNA'
p782
sS'530357873'
p783
S' PREDICTED: Homo sapiens uncharacterized LOC101927960 (LOC101927960), transcript variant X1, ncRNA'
p784
sS'337299699'
p785
S' Homo sapiens uncharacterized LOC100507412 (LOC100507412), long non-coding RNA'
p786
sS'256355083'
p787
S' Homo sapiens Morf4 family associated protein 1-like 1 pseudogene (LOC93622), non-coding RNA'
p788
sS'578794464'
p789
S' PREDICTED: Homo sapiens uncharacterized LOC102724329 (LOC102724329), transcript variant X3, ncRNA'
p790
sS'578794463'
p791
S' PREDICTED: Homo sapiens uncharacterized LOC102724329 (LOC102724329), transcript variant X2, ncRNA'
p792
sS'578794462'
p793
S' PREDICTED: Homo sapiens uncharacterized LOC102724329 (LOC102724329), transcript variant X1, ncRNA'
p794
sS'578794461'
p795
S' PREDICTED: Homo sapiens uncharacterized LOC102724358 (LOC102724358), ncRNA'
p796
sS'578794460'
p797
S' PREDICTED: Homo sapiens uncharacterized LOC102724387 (LOC102724387), transcript variant X2, ncRNA'
p798
sS'578795114'
p799
S' PREDICTED: Homo sapiens uncharacterized LOC102723645 (LOC102723645), ncRNA'
p800
sS'578795115'
p801
S' PREDICTED: Homo sapiens uncharacterized LOC102723659 (LOC102723659), ncRNA'
p802
sS'578795116'
p803
S' PREDICTED: Homo sapiens uncharacterized LOC102723675 (LOC102723675), ncRNA'
p804
sS'578795117'
p805
S' PREDICTED: Homo sapiens uncharacterized LOC102723710 (LOC102723710), transcript variant X1, ncRNA'
p806
sS'578795110'
p807
S' PREDICTED: Homo sapiens uncharacterized LOC102725482 (LOC102725482), ncRNA'
p808
sS'578795111'
p809
S' PREDICTED: Homo sapiens uncharacterized LOC101929048 (LOC101929048), ncRNA'
p810
sS'578794469'
p811
S' PREDICTED: Homo sapiens uncharacterized LOC284577 (RP11-576D8.4), misc_RNA'
p812
sS'578795113'
p813
S' PREDICTED: Homo sapiens uncharacterized LOC102723602 (LOC102723602), ncRNA'
p814
sS'336088670'
p815
S' Homo sapiens microtubule-associated protein 1 light chain 3 beta pseudogene (GS1-279B7.1), non-coding RNA'
p816
sS'537544664'
p817
S' Homo sapiens mitogen-activated protein kinase 8 interacting protein 1 pseudogene (LOC644172), non-coding RNA'
p818
sS'383792162'
p819
S' Homo sapiens uncharacterized LOC100506082 (LOC100506082), long non-coding RNA'
p820
sS'578795200'
p821
S' PREDICTED: Homo sapiens uncharacterized LOC102723967 (LOC102723967), transcript variant X2, ncRNA'
p822
sS'578795201'
p823
S' PREDICTED: Homo sapiens uncharacterized LOC101926936 (LOC101926936), transcript variant X1, ncRNA'
p824
sS'578795202'
p825
S' PREDICTED: Homo sapiens uncharacterized LOC101926936 (LOC101926936), transcript variant X2, ncRNA'
p826
sS'578795203'
p827
S' PREDICTED: Homo sapiens uncharacterized LOC102724069 (LOC102724069), ncRNA'
p828
sS'578795204'
p829
S' PREDICTED: Homo sapiens uncharacterized LOC101927007 (RP11-236P13.1), transcript variant X2, ncRNA'
p830
sS'578795205'
p831
S' PREDICTED: Homo sapiens uncharacterized LOC100996694 (RP11-700N1.1), transcript variant X3, ncRNA'
p832
sS'578795206'
p833
S' PREDICTED: Homo sapiens uncharacterized LOC101927052 (LOC101927052), transcript variant X2, ncRNA'
p834
sS'578795207'
p835
S' PREDICTED: Homo sapiens uncharacterized LOC102724158 (LOC102724158), ncRNA'
p836
sS'578795208'
p837
S' PREDICTED: Homo sapiens uncharacterized LOC102724176 (LOC102724176), ncRNA'
p838
sS'578795209'
p839
S' PREDICTED: Homo sapiens uncharacterized LOC101927109 (RP11-318I4.1), ncRNA'
p840
sS'578794249'
p841
S' PREDICTED: Homo sapiens uncharacterized LOC102724539 (LOC102724539), ncRNA'
p842
sS'578794248'
p843
S' PREDICTED: Homo sapiens uncharacterized LOC101928836 (LOC101928836), transcript variant X3, ncRNA'
p844
sS'578794247'
p845
S' PREDICTED: Homo sapiens uncharacterized LOC101928836 (LOC101928836), transcript variant X2, ncRNA'
p846
sS'578794246'
p847
S' PREDICTED: Homo sapiens uncharacterized LOC101928836 (LOC101928836), transcript variant X1, ncRNA'
p848
sS'578794244'
p849
S' PREDICTED: Homo sapiens uncharacterized LOC102724450 (LOC102724450), transcript variant X1, ncRNA'
p850
sS'300388191'
p851
S' Homo sapiens hCG1645011-like (LOC100131635), long non-coding RNA'
p852
sS'578794242'
p853
S' PREDICTED: Homo sapiens uncharacterized LOC102724415 (LOC102724415), ncRNA'
p854
sS'578794241'
p855
S' PREDICTED: Homo sapiens uncharacterized LOC100996583 (RP3-395M20.9), ncRNA'
p856
sS'336455103'
p857
S' Homo sapiens uncharacterized LOC285000 (LOC285000), long non-coding RNA'
p858
sS'212720746'
p859
S' Homo sapiens uncharacterized LOC100133985 (LOC100133985), long non-coding RNA'
p860
sS'32880228'
p861
S' Homo sapiens selenoprotein O (SELO), mRNA'
p862
sS'214830808'
p863
S' Homo sapiens cyclin Y-like 1 pseudogene (LOC641367), non-coding RNA'
p864
sS'530357657'
p865
S' PREDICTED: Homo sapiens uncharacterized LOC101927235 (LOC101927235), ncRNA'
p866
sS'530357652'
p867
S' PREDICTED: Homo sapiens uncharacterized LOC730100 (AC007682.1), misc_RNA'
p868
sS'578794863'
p869
S' PREDICTED: Homo sapiens uncharacterized LOC285191 (AC011298.2), misc_RNA'
p870
sS'578794862'
p871
S' PREDICTED: Homo sapiens uncharacterized LOC102723825 (LOC102723825), ncRNA'
p872
sS'215272311'
p873
S' Homo sapiens nucleolar complex associated 2 homolog (S. cerevisiae) pseudogene (LOC401010), non-coding RNA'
p874
sS'578794867'
p875
S' PREDICTED: Homo sapiens uncharacterized LOC101927206 (LOC101927206), transcript variant X2, ncRNA'
p876
sS'578794866'
p877
S' PREDICTED: Homo sapiens uncharacterized LOC101927206 (LOC101927206), transcript variant X1, ncRNA'
p878
sS'578794865'
p879
S' PREDICTED: Homo sapiens uncharacterized LOC101930137 (LOC101930137), ncRNA'
p880
sS'578794864'
p881
S' PREDICTED: Homo sapiens uncharacterized LOC101930667 (LOC101930667), mRNA'
p882
sS'578794868'
p883
S' PREDICTED: Homo sapiens rootletin-like (LOC728763), mRNA'
p884
sS'578794602'
p885
S' PREDICTED: Homo sapiens uncharacterized LOC102725348 (LOC102725348), ncRNA'
p886
sS'530357738'
p887
S' PREDICTED: Homo sapiens hCG1732469 (LOC729164), misc_RNA'
p888
sS'530357736'
p889
S' PREDICTED: Homo sapiens uncharacterized LOC644903 (FLJ38668), misc_RNA'
p890
sS'530357735'
p891
S' PREDICTED: Homo sapiens putative T-cell surface glycoprotein CD8 beta-2 chain-like (LOC100996919), mRNA'
p892
sS'530357731'
p893
S' PREDICTED: Homo sapiens uncharacterized LOC101927110 (LOC101927110), transcript variant X2, ncRNA'
p894
sS'226054055'
p895
S' Homo sapiens UDP-GlcNAc:betaGal beta-1,3-N-acetylglucosaminyltransferase 5 pseudogene (LOC100288842), non-coding RNA'
p896
sS'213385260'
p897
S' Homo sapiens uncharacterized LOC100190986 (LOC100190986), long non-coding RNA'
p898
sS'530358294'
p899
S' PREDICTED: Homo sapiens uncharacterized LOC101928760 (LOC101928760), ncRNA'
p900
sS'530358296'
p901
S' PREDICTED: Homo sapiens uncharacterized LOC101928815 (LOC101928815), transcript variant X1, ncRNA'
p902
sS'530358290'
p903
S' PREDICTED: Homo sapiens uncharacterized LOC101928658 (LOC101928658), transcript variant X2, ncRNA'
p904
sS'530358293'
p905
S' PREDICTED: Homo sapiens uncharacterized LOC339978 (LOC339978), misc_RNA'
p906
sS'530358299'
p907
S' PREDICTED: Homo sapiens COMM domain-containing protein 5-like (LOC101928879), mRNA'
p908
sS'530357934'
p909
S' PREDICTED: Homo sapiens rootletin-like (LOC728763), mRNA'
p910
sS'256017146'
p911
S' Homo sapiens uncharacterized LOC643923 (LOC643923), long non-coding RNA'
p912
sS'530358189'
p913
S' PREDICTED: Homo sapiens uncharacterized LOC100507461 (LOC100507461), ncRNA'
p914
sS'337299048'
p915
S' Homo sapiens uncharacterized LOC100129924 (LOC100129924), mRNA'
p916
sS'530358181'
p917
S' PREDICTED: Homo sapiens uncharacterized LOC101928061 (LOC101928061), ncRNA'
p918
sS'310923205'
p919
S' Homo sapiens two pore channel 3 pseudogene (LOC440895), transcript variant 2, non-coding RNA'
p920
sS'530358187'
p921
S' PREDICTED: Homo sapiens uncharacterized LOC101927942 (LOC101927942), transcript variant X1, ncRNA'
p922
sS'578794649'
p923
S' PREDICTED: Homo sapiens uncharacterized LOC101928082 (LOC101928082), transcript variant X1, ncRNA'
p924
sS'578794648'
p925
S' PREDICTED: Homo sapiens all-trans-retinol 13,14-reductase-like (LOC100996506), misc_RNA'
p926
sS'578794643'
p927
S' PREDICTED: Homo sapiens uncharacterized LOC101927826 (LOC101927826), transcript variant X2, ncRNA'
p928
sS'578794642'
p929
S' PREDICTED: Homo sapiens uncharacterized LOC101927826 (LOC101927826), transcript variant X1, ncRNA'
p930
sS'578794640'
p931
S' PREDICTED: Homo sapiens uncharacterized LOC102724389 (LOC102724389), ncRNA'
p932
sS'578794647'
p933
S' PREDICTED: Homo sapiens uncharacterized LOC102724579 (LOC102724579), ncRNA'
p934
sS'578794646'
p935
S' PREDICTED: Homo sapiens uncharacterized LOC102724515 (LOC102724515), ncRNA'
p936
sS'578794645'
p937
S' PREDICTED: Homo sapiens uncharacterized LOC102724497 (LOC102724497), ncRNA'
p938
sS'578794644'
p939
S' PREDICTED: Homo sapiens uncharacterized LOC102724482 (LOC102724482), ncRNA'
p940
sS'578794889'
p941
S' PREDICTED: Homo sapiens uncharacterized LOC101930467 (LOC101930467), ncRNA'
p942
sS'578794888'
p943
S' PREDICTED: Homo sapiens uncharacterized LOC102724763 (LOC102724763), ncRNA'
p944
sS'578794881'
p945
S' PREDICTED: Homo sapiens uncharacterized LOC100130207 (LOC100130207), misc_RNA'
p946
sS'578794880'
p947
S' PREDICTED: Homo sapiens uncharacterized LOC102723596 (LOC102723596), ncRNA'
p948
sS'578794883'
p949
S' PREDICTED: Homo sapiens uncharacterized LOC102723512 (LOC102723512), transcript variant X2, ncRNA'
p950
sS'578794882'
p951
S' PREDICTED: Homo sapiens uncharacterized LOC102723512 (LOC102723512), transcript variant X1, ncRNA'
p952
sS'578794885'
p953
S' PREDICTED: Homo sapiens uncharacterized LOC101927174 (LOC101927174), transcript variant X2, ncRNA'
p954
sS'578794884'
p955
S' PREDICTED: Homo sapiens uncharacterized LOC101927174 (LOC101927174), transcript variant X1, ncRNA'
p956
sS'578794887'
p957
S' PREDICTED: Homo sapiens uncharacterized LOC102725502 (LOC102725502), transcript variant X2, ncRNA'
p958
sS'578794886'
p959
S' PREDICTED: Homo sapiens uncharacterized LOC102725502 (LOC102725502), transcript variant X1, ncRNA'
p960
sS'302699227'
p961
S' Homo sapiens uncharacterized LOC100289230 (LOC100289230), long non-coding RNA'
p962
sS'578794504'
p963
S' PREDICTED: Homo sapiens uncharacterized LOC100505650 (LOC100505650), ncRNA'
p964
sS'578794505'
p965
S' PREDICTED: Homo sapiens uncharacterized LOC102724017 (LOC102724017), transcript variant X1, ncRNA'
p966
sS'578794506'
p967
S' PREDICTED: Homo sapiens uncharacterized LOC102724017 (LOC102724017), transcript variant X2, ncRNA'
p968
sS'578794507'
p969
S' PREDICTED: Homo sapiens uncharacterized LOC102724017 (LOC102724017), transcript variant X3, ncRNA'
p970
sS'578794500'
p971
S' PREDICTED: Homo sapiens uncharacterized LOC102724541 (LOC102724541), ncRNA'
p972
sS'578794501'
p973
S' PREDICTED: Homo sapiens uncharacterized LOC102724528 (LOC102724528), ncRNA'
p974
sS'578794502'
p975
S' PREDICTED: Homo sapiens uncharacterized LOC101928596 (LOC101928596), ncRNA'
p976
sS'578794503'
p977
S' PREDICTED: Homo sapiens uncharacterized LOC101928650 (RP11-576I22.2), ncRNA'
p978
sS'578795055'
p979
S' PREDICTED: Homo sapiens uncharacterized LOC101927832 (RP11-372E1.6), transcript variant X2, ncRNA'
p980
sS'530358075'
p981
S' PREDICTED: Homo sapiens double homeobox protein 4-like (LOC100996350), mRNA'
p982
sS'578795057'
p983
S' PREDICTED: Homo sapiens uncharacterized LOC101927832 (RP11-372E1.6), transcript variant X4, ncRNA'
p984
sS'530358077'
p985
S' PREDICTED: Homo sapiens chitinase-like protein PB1E7.04c-like (LOC100506944), mRNA'
p986
sS'530358070'
p987
S' PREDICTED: Homo sapiens uncharacterized LOC101927494 (LOC101927494), ncRNA'
p988
sS'530358071'
p989
S' PREDICTED: Homo sapiens uncharacterized LOC101927518 (LOC101927518), transcript variant X1, ncRNA'
p990
sS'578795053'
p991
S' PREDICTED: Homo sapiens uncharacterized LOC102724120 (LOC102724120), ncRNA'
p992
sS'530358278'
p993
S' PREDICTED: Homo sapiens uncharacterized LOC101928798 (LOC101928798), ncRNA'
p994
sS'530358271'
p995
S' PREDICTED: Homo sapiens uncharacterized LOC101927363 (LOC101927363), ncRNA'
p996
sS'563318536'
p997
S' Homo sapiens microRNA mir-6730 (MIR6730), microRNA'
p998
sS'373838762'
p999
S' Homo sapiens uncharacterized LOC284581 (LOC284581), transcript variant 2, long non-coding RNA'
p1000
sS'578794479'
p1001
S' PREDICTED: Homo sapiens uncharacterized LOC102725521 (LOC102725521), ncRNA'
p1002
sS'578794470'
p1003
S' PREDICTED: Homo sapiens uncharacterized LOC101929459 (LOC101929459), transcript variant X2, ncRNA'
p1004
sS'578794471'
p1005
S' PREDICTED: Homo sapiens uncharacterized LOC102723543 (LOC102723543), ncRNA'
p1006
sS'578794472'
p1007
S' PREDICTED: Homo sapiens uncharacterized LOC102723529 (LOC102723529), ncRNA'
p1008
sS'578794473'
p1009
S' PREDICTED: Homo sapiens uncharacterized LOC100506775 (RP11-134P9.3), transcript variant X2, ncRNA'
p1010
sS'578794474'
p1011
S' PREDICTED: Homo sapiens uncharacterized LOC102723494 (LOC102723494), ncRNA'
p1012
sS'578794475'
p1013
S' PREDICTED: Homo sapiens uncharacterized LOC101929388 (LOC101929388), ncRNA'
p1014
sS'578794476'
p1015
S' PREDICTED: Homo sapiens uncharacterized LOC102723465 (LOC102723465), ncRNA'
p1016
sS'578794477'
p1017
S' PREDICTED: Homo sapiens uncharacterized LOC101929305 (LOC101929305), ncRNA'
p1018
sS'212276331'
p1019
S' Homo sapiens uncharacterized LOC401105 (FLJ42393), long non-coding RNA'
p1020
sS'578795013'
p1021
S' PREDICTED: Homo sapiens uncharacterized LOC285389 (LOC285389), transcript variant X5, misc_RNA'
p1022
sS'578795014'
p1023
S' PREDICTED: Homo sapiens uncharacterized LOC102724808 (LOC102724808), ncRNA'
p1024
sS'530358037'
p1025
S' PREDICTED: Homo sapiens uncharacterized LOC101927647 (LOC101927647), ncRNA'
p1026
sS'530358038'
p1027
S' PREDICTED: Homo sapiens uncharacterized LOC152274 (RP11-95M5.1), misc_RNA'
p1028
sS'336595103'
p1029
S' Homo sapiens uncharacterized LOC100630918 (LOC100630918), long non-coding RNA'
p1030
sS'578794250'
p1031
S' PREDICTED: Homo sapiens uncharacterized LOC102724552 (LOC102724552), ncRNA'
p1032
sS'578794251'
p1033
S' PREDICTED: Homo sapiens uncharacterized LOC102724571 (LOC102724571), transcript variant X1, mRNA'
p1034
sS'578794253'
p1035
S' PREDICTED: Homo sapiens uncharacterized LOC102724571 (LOC102724571), transcript variant X2, mRNA'
p1036
sS'374429561'
p1037
S' Homo sapiens uncharacterized LOC100506100 (LOC100506100), long non-coding RNA'
p1038
sS'578794255'
p1039
S' PREDICTED: Homo sapiens uncharacterized LOC102724571 (LOC102724571), transcript variant X3, misc_RNA'
p1040
sS'578794256'
p1041
S' PREDICTED: Homo sapiens uncharacterized LOC102724571 (LOC102724571), transcript variant X4, misc_RNA'
p1042
sS'578794257'
p1043
S' PREDICTED: Homo sapiens uncharacterized LOC102724647 (LOC102724647), ncRNA'
p1044
sS'226423898'
p1045
S' Homo sapiens uncharacterized LOC440173 (LOC440173), long non-coding RNA'
p1046
sS'530357646'
p1047
S' PREDICTED: Homo sapiens uncharacterized LOC101926974 (LOC101926974), ncRNA'
p1048
sS'530357644'
p1049
S' PREDICTED: Homo sapiens uncharacterized LOC100130502 (LOC100130502), misc_RNA'
p1050
sS'530357642'
p1051
S' PREDICTED: Homo sapiens uncharacterized LOC101929763 (LOC101929763), transcript variant X1, ncRNA'
p1052
sS'530357640'
p1053
S' PREDICTED: Homo sapiens uncharacterized LOC101929700 (LOC101929700), ncRNA'
p1054
sS'530357648'
p1055
S' PREDICTED: Homo sapiens uncharacterized LOC100506235 (LOC100506235), transcript variant X3, ncRNA'
p1056
sS'530357649'
p1057
S' PREDICTED: Homo sapiens uncharacterized LOC100506235 (LOC100506235), transcript variant X2, ncRNA'
p1058
sS'578795112'
p1059
S' PREDICTED: Homo sapiens uncharacterized LOC101929095 (RP11-665G4.1), ncRNA'
p1060
sS'354459364'
p1061
S' Homo sapiens uncharacterized LOC100506124 (LOC100506124), long non-coding RNA'
p1062
sS'338797695'
p1063
S" Homo sapiens putative deoxyuridine 5'-triphosphate nucleotidohydrolase-like protein FLJ16323 (LOC100506422), mRNA"
p1064
sS'578794874'
p1065
S' PREDICTED: Homo sapiens uncharacterized LOC285095 (LOC285095), transcript variant X2, misc_RNA'
p1066
sS'578794875'
p1067
S' PREDICTED: Homo sapiens uncharacterized LOC101930660 (LOC101930660), ncRNA'
p1068
sS'578794876'
p1069
S' PREDICTED: Homo sapiens uncharacterized LOC101927440 (LOC101927440), ncRNA'
p1070
sS'578794877'
p1071
S' PREDICTED: Homo sapiens uncharacterized LOC101927416 (AC037193.1), transcript variant X2, ncRNA'
p1072
sS'578794870'
p1073
S' PREDICTED: Homo sapiens formin-like protein 18-like (LOC101927509), mRNA'
p1074
sS'578794872'
p1075
S' PREDICTED: Homo sapiens uncharacterized LOC102723927 (LOC102723927), ncRNA'
p1076
sS'578794873'
p1077
S' PREDICTED: Homo sapiens uncharacterized LOC285095 (LOC285095), transcript variant X1, mRNA'
p1078
sS'578794878'
p1079
S' PREDICTED: Homo sapiens uncharacterized LOC102723609 (LOC102723609), transcript variant X1, ncRNA'
p1080
sS'578794879'
p1081
S' PREDICTED: Homo sapiens uncharacterized LOC102723609 (LOC102723609), transcript variant X2, ncRNA'
p1082
sS'211971086'
p1083
S' Homo sapiens family with sequence similarity 115, member C pseudogene (LOC154761), non-coding RNA'
p1084
sS'530357705'
p1085
S' PREDICTED: Homo sapiens uncharacterized LOC101928403 (LOC101928403), ncRNA'
p1086
sS'530357708'
p1087
S' PREDICTED: Homo sapiens uncharacterized LOC101926937 (LOC101926937), ncRNA'
p1088
sS'518836396'
p1089
S' Homo sapiens uncharacterized LOC100996385 (LOC100996385), long non-coding RNA'
p1090
sS'217272881'
p1091
S' Homo sapiens uncharacterized LOC100130872 (LOC100130872), long non-coding RNA'
p1092
sS'578795054'
p1093
S' PREDICTED: Homo sapiens uncharacterized LOC101927832 (RP11-372E1.6), transcript variant X1, ncRNA'
p1094
sS'578794658'
p1095
S' PREDICTED: Homo sapiens uncharacterized LOC102724332 (LOC102724332), ncRNA'
p1096
sS'578794659'
p1097
S' PREDICTED: Homo sapiens uncharacterized LOC102725435 (LOC102725435), ncRNA'
p1098
sS'578794654'
p1099
S' PREDICTED: Homo sapiens uncharacterized LOC101928347 (LOC101928347), ncRNA'
p1100
sS'578794655'
p1101
S' PREDICTED: Homo sapiens uncharacterized LOC102724805 (LOC102724805), ncRNA'
p1102
sS'578794656'
p1103
S' PREDICTED: Homo sapiens uncharacterized LOC101928427 (LOC101928427), transcript variant X1, ncRNA'
p1104
sS'540344510'
p1105
S' Homo sapiens uncharacterized LOC100131303 (LOC100131303), mRNA'
p1106
sS'578794650'
p1107
S' PREDICTED: Homo sapiens uncharacterized LOC101928113 (LOC101928113), transcript variant X2, ncRNA'
p1108
sS'578794651'
p1109
S' PREDICTED: Homo sapiens uncharacterized LOC101928113 (LOC101928113), transcript variant X3, ncRNA'
p1110
sS'578794652'
p1111
S' PREDICTED: Homo sapiens collagen alpha-2(I) chain-like (LOC102724965), mRNA'
p1112
sS'578795249'
p1113
S' PREDICTED: Homo sapiens uncharacterized LOC102723359 (LOC102723359), ncRNA'
p1114
sS'578794898'
p1115
S' PREDICTED: Homo sapiens uncharacterized LOC101928965 (LOC101928965), transcript variant X3, ncRNA'
p1116
sS'578794899'
p1117
S' PREDICTED: Homo sapiens uncharacterized LOC101928965 (LOC101928965), transcript variant X4, ncRNA'
p1118
sS'578794892'
p1119
S' PREDICTED: Homo sapiens uncharacterized LOC102724626 (LOC102724626), ncRNA'
p1120
sS'578794893'
p1121
S' PREDICTED: Homo sapiens uncharacterized LOC101929054 (LOC101929054), transcript variant X2, ncRNA'
p1122
sS'578794890'
p1123
S' PREDICTED: Homo sapiens uncharacterized LOC102725519 (LOC102725519), ncRNA'
p1124
sS'578794891'
p1125
S' PREDICTED: Homo sapiens uncharacterized LOC102724718 (LOC102724718), ncRNA'
p1126
sS'578794896'
p1127
S' PREDICTED: Homo sapiens uncharacterized LOC102725280 (LOC102725280), ncRNA'
p1128
sS'578794897'
p1129
S' PREDICTED: Homo sapiens uncharacterized LOC101928965 (LOC101928965), transcript variant X2, ncRNA'
p1130
sS'578794894'
p1131
S' PREDICTED: Homo sapiens uncharacterized LOC101929054 (LOC101929054), transcript variant X3, ncRNA'
p1132
sS'578794895'
p1133
S' PREDICTED: Homo sapiens uncharacterized LOC102724535 (LOC102724535), ncRNA'
p1134
sS'530357899'
p1135
S' PREDICTED: Homo sapiens uncharacterized LOC101928662 (LOC101928662), transcript variant X1, ncRNA'
p1136
sS'530357898'
p1137
S' PREDICTED: Homo sapiens uncharacterized LOC729770 (LOC729770), misc_RNA'
p1138
sS'530357893'
p1139
S' PREDICTED: Homo sapiens uncharacterized LOC101928327 (LOC101928327), transcript variant X2, ncRNA'
p1140
sS'530357894'
p1141
S' PREDICTED: Homo sapiens uncharacterized LOC101928327 (LOC101928327), transcript variant X3, ncRNA'
p1142
sS'324073531'
p1143
S' Homo sapiens argonaute RISC catalytic component 3 (AGO3), transcript variant 2, mRNA'
p1144
sS'530358083'
p1145
S' PREDICTED: Homo sapiens uncharacterized LOC101926968 (LOC101926968), ncRNA'
p1146
sS'530358082'
p1147
S' PREDICTED: Homo sapiens uncharacterized LOC101930453 (LOC101930453), ncRNA'
p1148
sS'578795242'
p1149
S' PREDICTED: Homo sapiens uncharacterized LOC102724809 (LOC102724809), transcript variant X2, ncRNA'
p1150
sS'578795049'
p1151
S' PREDICTED: Homo sapiens uncharacterized LOC102725344 (LOC102725344), ncRNA'
p1152
sS'530358088'
p1153
S' PREDICTED: Homo sapiens uncharacterized LOC101929754 (LOC101929754), ncRNA'
p1154
sS'578795044'
p1155
S' PREDICTED: Homo sapiens uncharacterized LOC102724289 (LOC102724289), ncRNA'
p1156
sS'578795045'
p1157
S' PREDICTED: Homo sapiens uncharacterized LOC101928105 (LOC101928105), transcript variant X2, ncRNA'
p1158
sS'578795042'
p1159
S' PREDICTED: Homo sapiens uncharacterized LOC102724343 (LOC102724343), ncRNA'
p1160
sS'578795040'
p1161
S' PREDICTED: Homo sapiens uncharacterized LOC101928236 (LOC101928236), transcript variant X1, ncRNA'
p1162
sS'578795041'
p1163
S' PREDICTED: Homo sapiens uncharacterized LOC101928236 (LOC101928236), transcript variant X3, ncRNA'
p1164
sS'578794657'
p1165
S' PREDICTED: Homo sapiens uncharacterized LOC101928427 (LOC101928427), transcript variant X2, ncRNA'
p1166
sS'578795109'
p1167
S' PREDICTED: Homo sapiens uncharacterized LOC102723525 (LOC102723525), ncRNA'
p1168
sS'310114203'
p1169
S' PREDICTED: Homo sapiens uncharacterized LOC100506286 (LOC100506286), ncRNA'
p1170
sS'578794409'
p1171
S' PREDICTED: Homo sapiens uncharacterized LOC101930662 (LOC101930662), ncRNA'
p1172
sS'578794408'
p1173
S' PREDICTED: Homo sapiens uncharacterized LOC101929438 (RP6-206I17.2), transcript variant X12, ncRNA'
p1174
sS'578794405'
p1175
S' PREDICTED: Homo sapiens uncharacterized LOC101929438 (RP6-206I17.2), transcript variant X9, ncRNA'
p1176
sS'578794404'
p1177
S' PREDICTED: Homo sapiens uncharacterized LOC101929438 (RP6-206I17.2), transcript variant X8, ncRNA'
p1178
sS'578794407'
p1179
S' PREDICTED: Homo sapiens uncharacterized LOC101929438 (RP6-206I17.2), transcript variant X11, ncRNA'
p1180
sS'578794406'
p1181
S' PREDICTED: Homo sapiens uncharacterized LOC101929438 (RP6-206I17.2), transcript variant X10, ncRNA'
p1182
sS'578794401'
p1183
S' PREDICTED: Homo sapiens uncharacterized LOC101929438 (RP6-206I17.2), transcript variant X5, ncRNA'
p1184
sS'578794400'
p1185
S' PREDICTED: Homo sapiens uncharacterized LOC101929438 (RP6-206I17.2), transcript variant X4, ncRNA'
p1186
sS'578794403'
p1187
S' PREDICTED: Homo sapiens uncharacterized LOC101929438 (RP6-206I17.2), transcript variant X7, ncRNA'
p1188
sS'578794402'
p1189
S' PREDICTED: Homo sapiens uncharacterized LOC101929438 (RP6-206I17.2), transcript variant X6, ncRNA'
p1190
sS'380036031'
p1191
S' Homo sapiens uncharacterized LOC100133920 (LOC100133920), long non-coding RNA'
p1192
sS'578794311'
p1193
S' PREDICTED: Homo sapiens uncharacterized LOC102723990 (LOC102723990), ncRNA'
p1194
sS'578794315'
p1195
S' PREDICTED: Homo sapiens uncharacterized LOC101927458 (LOC101927458), transcript variant X1, ncRNA'
p1196
sS'578794314'
p1197
S' PREDICTED: Homo sapiens uncharacterized LOC102725351 (LOC102725351), ncRNA'
p1198
sS'578794317'
p1199
S' PREDICTED: Homo sapiens uncharacterized LOC101927342 (RP11-550H2.1), transcript variant X1, ncRNA'
p1200
sS'578794319'
p1201
S' PREDICTED: Homo sapiens uncharacterized LOC102724572 (LOC102724572), transcript variant X1, ncRNA'
p1202
sS'578794318'
p1203
S' PREDICTED: Homo sapiens uncharacterized LOC101927342 (RP11-550H2.1), transcript variant X2, ncRNA'
p1204
sS'530357093'
p1205
S' PREDICTED: Homo sapiens uncharacterized LOC101927507 (LOC101927507), transcript variant X1, ncRNA'
p1206
sS'530357092'
p1207
S' PREDICTED: Homo sapiens uncharacterized LOC101928226 (LOC101928226), ncRNA'
p1208
sS'530357091'
p1209
S' PREDICTED: Homo sapiens uncharacterized LOC400812 (FLJ39095), misc_RNA'
p1210
sS'530357090'
p1211
S' PREDICTED: Homo sapiens uncharacterized LOC101930248 (LOC101930248), ncRNA'
p1212
sS'530357095'
p1213
S' PREDICTED: Homo sapiens uncharacterized LOC101927479 (LOC101927479), ncRNA'
p1214
sS'530357094'
p1215
S' PREDICTED: Homo sapiens uncharacterized LOC101927507 (LOC101927507), transcript variant X2, ncRNA'
p1216
sS'578795243'
p1217
S' PREDICTED: Homo sapiens uncharacterized LOC102724842 (LOC102724842), transcript variant X1, ncRNA'
p1218
sS'530357253'
p1219
S' PREDICTED: Homo sapiens uncharacterized LOC101930375 (LOC101930375), transcript variant X1, ncRNA'
p1220
sS'530357252'
p1221
S' PREDICTED: Homo sapiens uncharacterized LOC101928754 (LOC101928754), ncRNA'
p1222
sS'530357255'
p1223
S' PREDICTED: Homo sapiens uncharacterized LOC101928846 (RP5-1073O3.7), transcript variant X1, ncRNA'
p1224
sS'530357257'
p1225
S' PREDICTED: Homo sapiens uncharacterized LOC101928890 (LOC101928890), ncRNA'
p1226
sS'335353789'
p1227
S' Homo sapiens leucine carboxyl methyltransferase 1 pseudogene (LOC554206), non-coding RNA'
p1228
sS'218156283'
p1229
S' Homo sapiens uncharacterized LOC100131496 (LOC100131496), long non-coding RNA'
p1230
sS'223941865'
p1231
S' Homo sapiens uncharacterized protein MGC16275 (MGC16275), long non-coding RNA'
p1232
sS'530357678'
p1233
S' PREDICTED: Homo sapiens uncharacterized LOC101927803 (LOC101927803), ncRNA'
p1234
sS'530357673'
p1235
S' PREDICTED: Homo sapiens uncharacterized LOC101927684 (LOC101927684), ncRNA'
p1236
sS'530357672'
p1237
S' PREDICTED: Homo sapiens uncharacterized LOC101927661 (LOC101927661), transcript variant X1, ncRNA'
p1238
sS'530357671'
p1239
S' PREDICTED: Homo sapiens uncharacterized LOC101930566 (LOC101930566), ncRNA'
p1240
sS'530357675'
p1241
S' PREDICTED: Homo sapiens uncharacterized LOC101927723 (LOC101927723), ncRNA'
p1242
sS'530357078'
p1243
S' PREDICTED: Homo sapiens uncharacterized LOC100130249 (PP2672), misc_RNA'
p1244
sS'530357071'
p1245
S' PREDICTED: Homo sapiens uncharacterized LOC101927660 (LOC101927660), ncRNA'
p1246
sS'530357075'
p1247
S' PREDICTED: Homo sapiens uncharacterized LOC101927736 (LOC101927736), ncRNA'
p1248
sS'530358084'
p1249
S' PREDICTED: Homo sapiens uncharacterized LOC101926953 (LOC101926953), ncRNA'
p1250
sS'530357714'
p1251
S' PREDICTED: Homo sapiens uncharacterized LOC101926959 (LOC101926959), ncRNA'
p1252
sS'578795047'
p1253
S' PREDICTED: Homo sapiens uncharacterized LOC101928105 (LOC101928105), transcript variant X4, ncRNA'
p1254
sS'530357718'
p1255
S' PREDICTED: Homo sapiens uncharacterized LOC100506036 (LOC100506036), ncRNA'
p1256
sS'530356973'
p1257
S' PREDICTED: Homo sapiens uncharacterized LOC101929343 (LOC101929343), ncRNA'
p1258
sS'578794799'
p1259
S' PREDICTED: Homo sapiens uncharacterized LOC101927687 (LOC101927687), transcript variant X4, ncRNA'
p1260
sS'578794798'
p1261
S' PREDICTED: Homo sapiens uncharacterized LOC101927687 (LOC101927687), transcript variant X2, ncRNA'
p1262
sS'530356972'
p1263
S' PREDICTED: Homo sapiens uncharacterized LOC101929367 (LOC101929367), ncRNA'
p1264
sS'578794795'
p1265
S' PREDICTED: Homo sapiens uncharacterized LOC102724498 (LOC102724498), ncRNA'
p1266
sS'578794794'
p1267
S' PREDICTED: Homo sapiens uncharacterized LOC102725423 (LOC102725423), ncRNA'
p1268
sS'578794797'
p1269
S' PREDICTED: Homo sapiens uncharacterized LOC101927687 (LOC101927687), transcript variant X3, ncRNA'
p1270
sS'578794796'
p1271
S' PREDICTED: Homo sapiens uncharacterized LOC101927596 (LOC101927596), transcript variant X2, ncRNA'
p1272
sS'578794791'
p1273
S' PREDICTED: Homo sapiens uncharacterized LOC102724395 (LOC102724395), ncRNA'
p1274
sS'578794790'
p1275
S' PREDICTED: Homo sapiens uncharacterized LOC102724367 (LOC102724367), transcript variant X3, ncRNA'
p1276
sS'578794793'
p1277
S' PREDICTED: Homo sapiens uncharacterized LOC101927252 (LOC101927252), transcript variant X1, ncRNA'
p1278
sS'578794792'
p1279
S' PREDICTED: Homo sapiens uncharacterized LOC101927252 (LOC101927252), transcript variant X2, ncRNA'
p1280
sS'530356975'
p1281
S' PREDICTED: Homo sapiens uncharacterized LOC101929305 (LOC101929305), ncRNA'
p1282
sS'578794622'
p1283
S' PREDICTED: Homo sapiens uncharacterized LOC101927144 (LOC101927144), transcript variant X2, ncRNA'
p1284
sS'530358169'
p1285
S' PREDICTED: Homo sapiens uncharacterized LOC101928351 (LOC101928351), ncRNA'
p1286
sS'530357889'
p1287
S' PREDICTED: Homo sapiens uncharacterized LOC101928250 (LOC101928250), ncRNA'
p1288
sS'530357885'
p1289
S' PREDICTED: Homo sapiens uncharacterized LOC101928180 (LOC101928180), transcript variant X1, ncRNA'
p1290
sS'530357886'
p1291
S' PREDICTED: Homo sapiens uncharacterized LOC101928180 (LOC101928180), transcript variant X2, ncRNA'
p1292
sS'530357887'
p1293
S' PREDICTED: Homo sapiens uncharacterized LOC101928180 (LOC101928180), transcript variant X3, ncRNA'
p1294
sS'530357882'
p1295
S' PREDICTED: Homo sapiens uncharacterized LOC100507554 (LOC100507554), transcript variant X2, ncRNA'
p1296
sS'530357883'
p1297
S' PREDICTED: Homo sapiens uncharacterized LOC100507554 (LOC100507554), transcript variant X1, ncRNA'
p1298
sS'578795073'
p1299
S' PREDICTED: Homo sapiens uncharacterized LOC100507033 (LOC100507033), ncRNA'
p1300
sS'578795072'
p1301
S' PREDICTED: Homo sapiens intraflagellar transport protein 122 homolog (LOC101927266), transcript variant X2, misc_RNA'
p1302
sS'578795071'
p1303
S' PREDICTED: Homo sapiens intraflagellar transport protein 122 homolog (LOC101927266), transcript variant X1, mRNA'
p1304
sS'578795070'
p1305
S' PREDICTED: Homo sapiens uncharacterized LOC102723877 (LOC102723877), ncRNA'
p1306
sS'578795077'
p1307
S' PREDICTED: Homo sapiens succinate dehydrogenase [ubiquinone] flavoprotein subunit, mitochondrial-like (LOC101930534), transcript variant X1, mRNA'
p1308
sS'578795075'
p1309
S' PREDICTED: Homo sapiens mucin-5AC-like (LOC727978), partial mRNA'
p1310
sS'578795074'
p1311
S' PREDICTED: Homo sapiens uncharacterized LOC102725508 (LOC102725508), ncRNA'
p1312
sS'578795079'
p1313
S' PREDICTED: Homo sapiens uncharacterized LOC102725383 (LOC102725383), transcript variant X1, ncRNA'
p1314
sS'578795078'
p1315
S' PREDICTED: Homo sapiens succinate dehydrogenase [ubiquinone] flavoprotein subunit, mitochondrial-like (LOC101930534), transcript variant X2, mRNA'
p1316
sS'530358253'
p1317
S' PREDICTED: Homo sapiens uncharacterized LOC101928329 (LOC101928329), ncRNA'
p1318
sS'530358258'
p1319
S' PREDICTED: Homo sapiens uncharacterized LOC339988 (RP11-539L10.2), misc_RNA'
p1320
sS'530358259'
p1321
S' PREDICTED: Homo sapiens uncharacterized LOC389199 (LOC389199), misc_RNA'
p1322
sS'578794418'
p1323
S' PREDICTED: Homo sapiens myomegalin-like (LOC100996724), transcript variant X8, mRNA'
p1324
sS'578794416'
p1325
S' PREDICTED: Homo sapiens myomegalin-like (LOC100996724), transcript variant X7, mRNA'
p1326
sS'578794414'
p1327
S' PREDICTED: Homo sapiens myomegalin-like (LOC100996724), transcript variant X6, mRNA'
p1328
sS'578794412'
p1329
S' PREDICTED: Homo sapiens myomegalin-like (LOC100996724), transcript variant X5, mRNA'
p1330
sS'578794410'
p1331
S' PREDICTED: Homo sapiens myomegalin-like (LOC100996724), transcript variant X4, mRNA'
p1332
sS'333360917'
p1333
S' Homo sapiens histocompatibility antigen-related (LOC554223), mRNA'
p1334
sS'310114503'
p1335
S' PREDICTED: Homo sapiens uncharacterized LOC100505609 (LOC100505609), transcript variant 1, ncRNA'
p1336
sS'209977058'
p1337
S' Homo sapiens uncharacterized LOC145845 (LOC145845), long non-coding RNA'
p1338
sS'310114698'
p1339
S' PREDICTED: Homo sapiens uncharacterized LOC100505685 (LOC100505685), transcript variant X1, ncRNA'
p1340
sS'578794302'
p1341
S' PREDICTED: Homo sapiens uncharacterized LOC102723924 (LOC102723924), transcript variant X2, ncRNA'
p1342
sS'578794303'
p1343
S' PREDICTED: Homo sapiens uncharacterized LOC101929444 (LOC101929444), ncRNA'
p1344
sS'578794300'
p1345
S' PREDICTED: Homo sapiens uncharacterized LOC101929901 (LOC101929901), transcript variant X2, ncRNA'
p1346
sS'578794301'
p1347
S' PREDICTED: Homo sapiens uncharacterized LOC102723924 (LOC102723924), transcript variant X1, ncRNA'
p1348
sS'578794306'
p1349
S' PREDICTED: Homo sapiens uncharacterized LOC102724045 (LOC102724045), ncRNA'
p1350
sS'578794307'
p1351
S' PREDICTED: Homo sapiens uncharacterized LOC102724033 (LOC102724033), ncRNA'
p1352
sS'578794304'
p1353
S' PREDICTED: Homo sapiens uncharacterized LOC102723832 (LOC102723832), ncRNA'
p1354
sS'578794305'
p1355
S' PREDICTED: Homo sapiens uncharacterized LOC102724077 (LOC102724077), ncRNA'
p1356
sS'578794308'
p1357
S' PREDICTED: Homo sapiens uncharacterized LOC102724021 (LOC102724021), ncRNA'
p1358
sS'578794309'
p1359
S' PREDICTED: Homo sapiens uncharacterized LOC101929626 (RP4-533D7.5), transcript variant X1, ncRNA'
p1360
sS'218931218'
p1361
S' Homo sapiens uncharacterized LOC100129550 (LOC100129550), long non-coding RNA'
p1362
sS'578795099'
p1363
S' PREDICTED: Homo sapiens serine/arginine repetitive matrix protein 2-like (LOC101928558), mRNA'
p1364
sS'578795091'
p1365
S' PREDICTED: Homo sapiens mucin-12-like (LOC101928621), transcript variant X1, mRNA'
p1366
sS'578795090'
p1367
S' PREDICTED: Homo sapiens uncharacterized LOC101928588 (LOC101928588), ncRNA'
p1368
sS'578795093'
p1369
S' PREDICTED: Homo sapiens uncharacterized LOC101928676 (LOC101928676), ncRNA'
p1370
sS'578795092'
p1371
S' PREDICTED: Homo sapiens mucin-12-like (LOC101928621), transcript variant X2, mRNA'
p1372
sS'578795095'
p1373
S' PREDICTED: Homo sapiens uncharacterized LOC102723763 (LOC102723763), ncRNA'
p1374
sS'578795094'
p1375
S' PREDICTED: Homo sapiens uncharacterized LOC102724043 (LOC102724043), misc_RNA'
p1376
sS'578795096'
p1377
S' PREDICTED: Homo sapiens uncharacterized LOC102723755 (LOC102723755), ncRNA'
p1378
sS'530357084'
p1379
S' PREDICTED: Homo sapiens uncharacterized LOC100506929 (LOC100506929), transcript variant X3, ncRNA'
p1380
sS'530357087'
p1381
S' PREDICTED: Homo sapiens uncharacterized LOC101928139 (LOC101928139), ncRNA'
p1382
sS'530357082'
p1383
S' PREDICTED: Homo sapiens uncharacterized LOC101927906 (LOC101927906), ncRNA'
p1384
sS'530357088'
p1385
S' PREDICTED: Homo sapiens uncharacterized LOC101928089 (LOC101928089), ncRNA'
p1386
sS'530357246'
p1387
S' PREDICTED: Homo sapiens uncharacterized LOC101928560 (LOC101928560), ncRNA'
p1388
sS'530357249'
p1389
S' PREDICTED: Homo sapiens uncharacterized LOC101930362 (LOC101930362), ncRNA'
p1390
sS'336285246'
p1391
S' Homo sapiens phosphoribosyl pyrophosphate synthetase 2 pseudogene (LOC100130673), non-coding RNA'
p1392
sS'410170131'
p1393
S' PREDICTED: Homo sapiens protein FAM218A-like (LOC101059914), mRNA'
p1394
sS'578794237'
p1395
S' PREDICTED: Homo sapiens uncharacterized LOC284600 (LOC284600), misc_RNA'
p1396
sS'578794238'
p1397
S' PREDICTED: Homo sapiens uncharacterized LOC102724312 (LOC102724312), ncRNA'
p1398
sS'578794239'
p1399
S' PREDICTED: Homo sapiens uncharacterized LOC100506504 (LOC100506504), mRNA'
p1400
sS'578794561'
p1401
S' PREDICTED: Homo sapiens uncharacterized LOC101927426 (LOC101927426), transcript variant X1, ncRNA'
p1402
sS'304376267'
p1403
S' Homo sapiens alpha-1,3-mannosyl-glycoprotein 4-beta-N-acetylglucosaminyltransferase-like protein LOC641515 homolog (LOC100506747), non-coding RNA'
p1404
sS'284005210'
p1405
S' Homo sapiens glycine cleavage system protein H (aminomethyl carrier) pseudogene (LOC641746), non-coding RNA'
p1406
sS'530357665'
p1407
S' PREDICTED: Homo sapiens uncharacterized LOC100996770 (LOC100996770), ncRNA'
p1408
sS'530357666'
p1409
S' PREDICTED: Homo sapiens uncharacterized LOC101927533 (LOC101927533), ncRNA'
p1410
sS'530357660'
p1411
S' PREDICTED: Homo sapiens uncharacterized LOC100996924 (LOC100996924), mRNA'
p1412
sS'530357068'
p1413
S' PREDICTED: Homo sapiens uncharacterized LOC101927553 (LOC101927553), ncRNA'
p1414
sS'530357060'
p1415
S' PREDICTED: Homo sapiens uncharacterized LOC101927401 (LOC101927401), transcript variant X1, ncRNA'
p1416
sS'530357061'
p1417
S' PREDICTED: Homo sapiens uncharacterized LOC101927401 (LOC101927401), transcript variant X2, ncRNA'
p1418
sS'530357066'
p1419
S' PREDICTED: Homo sapiens uncharacterized LOC101927504 (LOC101927504), transcript variant X1, ncRNA'
p1420
sS'530357067'
p1421
S' PREDICTED: Homo sapiens uncharacterized LOC101927532 (LOC101927532), ncRNA'
p1422
sS'221139753'
p1423
S' Homo sapiens uncharacterized LOC400043 (LOC400043), long non-coding RNA'
p1424
sS'578794980'
p1425
S' PREDICTED: Homo sapiens uncharacterized LOC102724841 (LOC102724841), ncRNA'
p1426
sS'578794981'
p1427
S' PREDICTED: Homo sapiens uncharacterized LOC644662 (LOC644662), ncRNA'
p1428
sS'578794985'
p1429
S' PREDICTED: Homo sapiens uncharacterized LOC101927056 (RP11-379B18.5), transcript variant X3, ncRNA'
p1430
sS'578794986'
p1431
S' PREDICTED: Homo sapiens uncharacterized LOC102723666 (LOC102723666), ncRNA'
p1432
sS'578794987'
p1433
S' PREDICTED: Homo sapiens uncharacterized LOC101927028 (LOC101927028), transcript variant X3, ncRNA'
p1434
sS'530357693'
p1435
S' PREDICTED: Homo sapiens uncharacterized LOC101928113 (LOC101928113), transcript variant X1, ncRNA'
p1436
sS'578794788'
p1437
S' PREDICTED: Homo sapiens uncharacterized LOC102724367 (LOC102724367), transcript variant X1, ncRNA'
p1438
sS'578794789'
p1439
S' PREDICTED: Homo sapiens uncharacterized LOC102724367 (LOC102724367), transcript variant X2, ncRNA'
p1440
sS'578794786'
p1441
S' PREDICTED: Homo sapiens uncharacterized LOC102724340 (LOC102724340), ncRNA'
p1442
sS'578794787'
p1443
S' PREDICTED: Homo sapiens uncharacterized LOC102724349 (LOC102724349), ncRNA'
p1444
sS'578794784'
p1445
S' PREDICTED: Homo sapiens uncharacterized LOC102724304 (LOC102724304), ncRNA'
p1446
sS'578794785'
p1447
S' PREDICTED: Homo sapiens uncharacterized LOC101929976 (LOC101929976), ncRNA'
p1448
sS'578794782'
p1449
S' PREDICTED: Homo sapiens uncharacterized LOC102724288 (LOC102724288), transcript variant X1, ncRNA'
p1450
sS'578794783'
p1451
S' PREDICTED: Homo sapiens uncharacterized LOC102724288 (LOC102724288), transcript variant X2, ncRNA'
p1452
sS'578794780'
p1453
S' PREDICTED: Homo sapiens uncharacterized LOC101930292 (LOC101930292), transcript variant X2, ncRNA'
p1454
sS'578794781'
p1455
S' PREDICTED: Homo sapiens uncharacterized LOC101930292 (LOC101930292), transcript variant X3, ncRNA'
p1456
sS'383209669'
p1457
S' Homo sapiens POTE ankyrin domain family member D-like (LOC100288966), mRNA'
p1458
sS'530357984'
p1459
S' PREDICTED: Homo sapiens uncharacterized LOC101929054 (LOC101929054), transcript variant X1, ncRNA'
p1460
sS'256017194'
p1461
S' Homo sapiens uncharacterized LOC284009 (LOC284009), long non-coding RNA'
p1462
sS'530357980'
p1463
S' PREDICTED: Homo sapiens uncharacterized LOC101929159 (LOC101929159), ncRNA'
p1464
sS'530357982'
p1465
S' PREDICTED: Homo sapiens uncharacterized LOC101929119 (LOC101929119), ncRNA'
p1466
sS'530358313'
p1467
S' PREDICTED: Homo sapiens uncharacterized LOC101928893 (LOC101928893), ncRNA'
p1468
sS'530358312'
p1469
S' PREDICTED: Homo sapiens uncharacterized LOC101928864 (LOC101928864), ncRNA'
p1470
sS'530358314'
p1471
S' PREDICTED: Homo sapiens uncharacterized LOC101928918 (LOC101928918), ncRNA'
p1472
sS'530358319'
p1473
S' PREDICTED: Homo sapiens uncharacterized LOC101929015 (LOC101929015), ncRNA'
p1474
sS'530358318'
p1475
S' PREDICTED: Homo sapiens uncharacterized LOC101928978 (LOC101928978), transcript variant X2, ncRNA'
p1476
sS'224809444'
p1477
S' Homo sapiens uncharacterized LOC150527 (TISP43), transcript variant 1, non-coding RNA'
p1478
sS'212286160'
p1479
S' Homo sapiens uncharacterized LOC389332 (LOC389332), long non-coding RNA'
p1480
sS'224809445'
p1481
S' Homo sapiens uncharacterized LOC150527 (TISP43), transcript variant 2, non-coding RNA'
p1482
sS'239735538'
p1483
S' Homo sapiens A20-binding inhibitor of NF-kappaB activation 2 pseudogene (LOC100132831), non-coding RNA'
p1484
sS'395394002'
p1485
S' Homo sapiens general transcription factor II, i, pseudogene (LOC100093631), non-coding RNA'
p1486
sS'303304951'
p1487
S' Homo sapiens uncharacterized LOC644656 (LOC644656), long non-coding RNA'
p1488
sS'578795064'
p1489
S' PREDICTED: Homo sapiens uncharacterized LOC102724019 (LOC102724019), transcript variant X1, ncRNA'
p1490
sS'578795065'
p1491
S' PREDICTED: Homo sapiens uncharacterized LOC102724019 (LOC102724019), transcript variant X2, ncRNA'
p1492
sS'578795066'
p1493
S' PREDICTED: Homo sapiens uncharacterized LOC101927568 (LOC101927568), transcript variant X2, ncRNA'
p1494
sS'578795067'
p1495
S' PREDICTED: Homo sapiens uncharacterized LOC101927338 (LOC101927338), ncRNA'
p1496
sS'578795060'
p1497
S' PREDICTED: Homo sapiens uncharacterized LOC100507291 (RP11-319G6.1), transcript variant X5, ncRNA'
p1498
sS'578795061'
p1499
S' PREDICTED: Homo sapiens uncharacterized LOC100507291 (RP11-319G6.1), transcript variant X6, ncRNA'
p1500
sS'578795062'
p1501
S' PREDICTED: Homo sapiens uncharacterized LOC102724040 (LOC102724040), ncRNA'
p1502
sS'578795063'
p1503
S' PREDICTED: Homo sapiens uncharacterized LOC102725374 (LOC102725374), ncRNA'
p1504
sS'578795068'
p1505
S' PREDICTED: Homo sapiens uncharacterized LOC102725400 (LOC102725400), ncRNA'
p1506
sS'578795069'
p1507
S' PREDICTED: Homo sapiens uncharacterized LOC102725403 (LOC102725403), ncRNA'
p1508
sS'530358221'
p1509
S' PREDICTED: Homo sapiens uncharacterized LOC101929697 (LOC101929697), ncRNA'
p1510
sS'578794423'
p1511
S' PREDICTED: Homo sapiens myomegalin-like (LOC101060254), mRNA'
p1512
sS'578794421'
p1513
S' PREDICTED: Homo sapiens uncharacterized LOC102723367 (LOC102723367), mRNA'
p1514
sS'578794420'
p1515
S' PREDICTED: Homo sapiens uncharacterized LOC101930314 (LOC101930314), transcript variant X2, ncRNA'
p1516
sS'578794427'
p1517
S' PREDICTED: Homo sapiens abhydrolase domain-containing protein FAM108A2/A3-like (LOC101930551), partial mRNA'
p1518
sS'578794426'
p1519
S' PREDICTED: Homo sapiens uncharacterized LOC100505824 (LOC100505824), ncRNA'
p1520
sS'578794425'
p1521
S' PREDICTED: Homo sapiens uncharacterized LOC102723321 (LOC102723321), ncRNA'
p1522
sS'578794429'
p1523
S' PREDICTED: Homo sapiens uncharacterized LOC101929257 (LOC101929257), ncRNA'
p1524
sS'530358139'
p1525
S' PREDICTED: Homo sapiens uncharacterized LOC101929079 (LOC101929079), transcript variant X1, ncRNA'
p1526
sS'530358132'
p1527
S' PREDICTED: Homo sapiens uncharacterized LOC101929198 (LOC101929198), ncRNA'
p1528
sS'530358137'
p1529
S' PREDICTED: Homo sapiens uncharacterized LOC101929130 (LOC101929130), ncRNA'
p1530
sS'530356902'
p1531
S' PREDICTED: Homo sapiens myomegalin-like (LOC101930416), mRNA'
p1532
sS'530356905'
p1533
S' PREDICTED: Homo sapiens uncharacterized LOC100287877 (LOC100287877), misc_RNA'
p1534
sS'428983472'
p1535
S' Homo sapiens uncharacterized LOC100506403 (LOC100506403), long non-coding RNA'
p1536
sS'578794337'
p1537
S' PREDICTED: Homo sapiens uncharacterized LOC101930559 (LOC101930559), ncRNA'
p1538
sS'578794336'
p1539
S' PREDICTED: Homo sapiens uncharacterized LOC101926925 (RP4-794H19.4), transcript variant X3, ncRNA'
p1540
sS'578794335'
p1541
S' PREDICTED: Homo sapiens uncharacterized LOC101926925 (RP4-794H19.4), transcript variant X2, ncRNA'
p1542
sS'578794334'
p1543
S' PREDICTED: Homo sapiens uncharacterized LOC101926925 (RP4-794H19.4), transcript variant X1, ncRNA'
p1544
sS'578795248'
p1545
S' PREDICTED: Homo sapiens uncharacterized LOC101928172 (LOC101928172), ncRNA'
p1546
sS'578794332'
p1547
S' PREDICTED: Homo sapiens uncharacterized LOC102724281 (LOC102724281), transcript variant X2, ncRNA'
p1548
sS'578794331'
p1549
S' PREDICTED: Homo sapiens uncharacterized LOC102724281 (LOC102724281), transcript variant X1, ncRNA'
p1550
sS'578794330'
p1551
S' PREDICTED: Homo sapiens uncharacterized LOC100996301 (LOC100996301), ncRNA'
p1552
sS'578795244'
p1553
S' PREDICTED: Homo sapiens uncharacterized LOC102724842 (LOC102724842), transcript variant X2, ncRNA'
p1554
sS'578795245'
p1555
S' PREDICTED: Homo sapiens uncharacterized LOC102724899 (LOC102724899), ncRNA'
p1556
sS'578795246'
p1557
S' PREDICTED: Homo sapiens uncharacterized LOC102724976 (LOC102724976), ncRNA'
p1558
sS'578795247'
p1559
S' PREDICTED: Homo sapiens uncharacterized LOC102723331 (LOC102723331), ncRNA'
p1560
sS'578795240'
p1561
S' PREDICTED: Homo sapiens uncharacterized LOC102724785 (LOC102724785), transcript variant X2, ncRNA'
p1562
sS'578795241'
p1563
S' PREDICTED: Homo sapiens uncharacterized LOC102724809 (LOC102724809), transcript variant X1, ncRNA'
p1564
sS'578794339'
p1565
S' PREDICTED: Homo sapiens uncharacterized LOC102724140 (LOC102724140), ncRNA'
p1566
sS'578794338'
p1567
S' PREDICTED: Homo sapiens uncharacterized LOC102724154 (LOC102724154), ncRNA'
p1568
sS'578795088'
p1569
S' PREDICTED: Homo sapiens uncharacterized LOC102725350 (LOC102725350), ncRNA'
p1570
sS'578795089'
p1571
S' PREDICTED: Homo sapiens spidroin-2-like (LOC101928548), mRNA'
p1572
sS'578795082'
p1573
S' PREDICTED: Homo sapiens uncharacterized LOC102723473 (LOC102723473), transcript variant X1, ncRNA'
p1574
sS'578795083'
p1575
S' PREDICTED: Homo sapiens uncharacterized LOC102723473 (LOC102723473), transcript variant X2, ncRNA'
p1576
sS'578795080'
p1577
S' PREDICTED: Homo sapiens uncharacterized LOC102725383 (LOC102725383), transcript variant X2, ncRNA'
p1578
sS'578795081'
p1579
S' PREDICTED: Homo sapiens uncharacterized LOC102725383 (LOC102725383), transcript variant X3, ncRNA'
p1580
sS'578795086'
p1581
S' PREDICTED: Homo sapiens uncharacterized LOC101926923 (LOC101926923), ncRNA'
p1582
sS'578795087'
p1583
S' PREDICTED: Homo sapiens uncharacterized LOC102723589 (LOC102723589), ncRNA'
p1584
sS'578795084'
p1585
S' PREDICTED: Homo sapiens uncharacterized LOC102723473 (LOC102723473), transcript variant X3, ncRNA'
p1586
sS'577861090'
p1587
S' Homo sapiens uncharacterized LOC101927178 (LOC101927178), long non-coding RNA'
p1588
sS'577861091'
p1589
S' Homo sapiens uncharacterized LOC101928627 (RP11-87M18.2), long non-coding RNA'
p1590
sS'578794490'
p1591
S' PREDICTED: Homo sapiens uncharacterized LOC102724846 (LOC102724846), ncRNA'
p1592
sS'578794491'
p1593
S' PREDICTED: Homo sapiens uncharacterized LOC102724830 (LOC102724830), ncRNA'
p1594
sS'530357276'
p1595
S' PREDICTED: Homo sapiens uncharacterized LOC101930646 (LOC101930646), ncRNA'
p1596
sS'530357278'
p1597
S' PREDICTED: Homo sapiens uncharacterized LOC101930314 (LOC101930314), transcript variant X1, ncRNA'
p1598
sS'578794498'
p1599
S' PREDICTED: Homo sapiens uncharacterized LOC102724568 (LOC102724568), ncRNA'
p1600
sS'530357185'
p1601
S' PREDICTED: Homo sapiens uncharacterized LOC101926907 (LOC101926907), ncRNA'
p1602
sS'530357690'
p1603
S' PREDICTED: Homo sapiens uncharacterized LOC100996478 (LOC100996478), ncRNA'
p1604
sS'568215761'
p1605
S' Homo sapiens uncharacterized LOC728095 (CTB-174D11.1), long non-coding RNA'
p1606
sS'530357058'
p1607
S' PREDICTED: Homo sapiens uncharacterized LOC100506571 (LOC100506571), mRNA'
p1608
sS'530357052'
p1609
S' PREDICTED: Homo sapiens uncharacterized LOC101928291 (LOC101928291), mRNA'
p1610
sS'365733598'
p1611
S' Homo sapiens uncharacterized LOC100287010 (LOC100287010), long non-coding RNA'
p1612
sS'578794931'
p1613
S' PREDICTED: Homo sapiens uncharacterized LOC101927777 (LOC101927777), transcript variant X3, ncRNA'
p1614
sS'578794930'
p1615
S' PREDICTED: Homo sapiens uncharacterized LOC101927777 (LOC101927777), transcript variant X2, ncRNA'
p1616
sS'578794932'
p1617
S' PREDICTED: Homo sapiens uncharacterized LOC101927805 (LOC101927805), ncRNA'
p1618
sS'578794935'
p1619
S' PREDICTED: Homo sapiens uncharacterized LOC101927674 (LOC101927674), transcript variant X1, ncRNA'
p1620
sS'578794934'
p1621
S' PREDICTED: Homo sapiens homeobox protein cut-like 1-like (LOC101929587), transcript variant X2, misc_RNA'
p1622
sS'578794937'
p1623
S' PREDICTED: Homo sapiens uncharacterized LOC101927674 (LOC101927674), transcript variant X4, ncRNA'
p1624
sS'578794936'
p1625
S' PREDICTED: Homo sapiens uncharacterized LOC101927674 (LOC101927674), transcript variant X2, ncRNA'
p1626
sS'578794939'
p1627
S' PREDICTED: Homo sapiens uncharacterized LOC101927674 (LOC101927674), transcript variant X3, ncRNA'
p1628
sS'578794938'
p1629
S' PREDICTED: Homo sapiens uncharacterized LOC101927674 (LOC101927674), transcript variant X5, ncRNA'
p1630
sS'578794513'
p1631
S' PREDICTED: Homo sapiens uncharacterized LOC101930644 (LOC101930644), ncRNA'
p1632
sS'530357997'
p1633
S' PREDICTED: Homo sapiens uncharacterized LOC101928636 (LOC101928636), ncRNA'
p1634
sS'530357994'
p1635
S' PREDICTED: Homo sapiens rRNA-processing protein FCF1 homolog (LOC101060195), misc_RNA'
p1636
sS'530357998'
p1637
S' PREDICTED: Homo sapiens zinc finger protein 3-like (LOC101928592), partial mRNA'
p1638
sS'578794684'
p1639
S' PREDICTED: Homo sapiens putative aquaporin-7-like protein 3-like (LOC100509620), transcript variant X18, misc_RNA'
p1640
sS'530358306'
p1641
S' PREDICTED: Homo sapiens uncharacterized LOC101927297 (LOC101927297), ncRNA'
p1642
sS'578794682'
p1643
S' PREDICTED: Homo sapiens putative aquaporin-7-like protein 3-like (LOC100509620), transcript variant X16, misc_RNA'
p1644
sS'578794681'
p1645
S' PREDICTED: Homo sapiens putative aquaporin-7-like protein 3-like (LOC100509620), transcript variant X15, misc_RNA'
p1646
sS'530358305'
p1647
S' PREDICTED: Homo sapiens uncharacterized LOC101930401 (LOC101930401), ncRNA'
p1648
sS'578795022'
p1649
S' PREDICTED: Homo sapiens uncharacterized LOC101929079 (LOC101929079), transcript variant X2, ncRNA'
p1650
sS'530358067'
p1651
S' PREDICTED: Homo sapiens uncharacterized LOC728290 (LOC728290), transcript variant X3, ncRNA'
p1652
sS'530357860'
p1653
S' PREDICTED: Homo sapiens uncharacterized LOC101927665 (LOC101927665), ncRNA'
p1654
sS'530357861'
p1655
S' PREDICTED: Homo sapiens uncharacterized LOC101927687 (LOC101927687), transcript variant X1, ncRNA'
p1656
sS'578795026'
p1657
S' PREDICTED: Homo sapiens uncharacterized LOC101929018 (LOC101929018), transcript variant X2, ncRNA'
p1658
sS'558516032'
p1659
S' Homo sapiens uncharacterized LOC101929034 (LOC101929034), long non-coding RNA'
p1660
sS'578794837'
p1661
S' PREDICTED: Homo sapiens uncharacterized LOC102725407 (LOC102725407), transcript variant X3, ncRNA'
p1662
sS'578794759'
p1663
S' PREDICTED: Homo sapiens uncharacterized LOC102723938 (LOC102723938), ncRNA'
p1664
sS'530358234'
p1665
S' PREDICTED: Homo sapiens uncharacterized LOC101928521 (RP11-1191J2.2), ncRNA'
p1666
sS'530358235'
p1667
S' PREDICTED: Homo sapiens uncharacterized LOC101930638 (LOC101930638), ncRNA'
p1668
sS'530358232'
p1669
S' PREDICTED: Homo sapiens uncharacterized LOC100129516 (LOC100129516), misc_RNA'
p1670
sS'323462195'
p1671
S' Homo sapiens uncharacterized LOC653160 (LOC653160), long non-coding RNA'
p1672
sS'515871354'
p1673
S' Homo sapiens uncharacterized LOC100128233 (LOC100128233), long non-coding RNA'
p1674
sS'578794752'
p1675
S' PREDICTED: Homo sapiens uncharacterized LOC101928339 (LOC101928339), ncRNA'
p1676
sS'578794754'
p1677
S' PREDICTED: Homo sapiens serine/arginine repetitive matrix protein 2-like (LOC101060825), mRNA'
p1678
sS'578794757'
p1679
S' PREDICTED: Homo sapiens uncharacterized LOC102725484 (LOC102725484), ncRNA'
p1680
sS'578794756'
p1681
S' PREDICTED: Homo sapiens uncharacterized LOC100131270 (LOC100131270), misc_RNA'
p1682
sS'530358108'
p1683
S' PREDICTED: Homo sapiens protein FAM136A-like (LOC100287852), mRNA'
p1684
sS'578794434'
p1685
S' PREDICTED: Homo sapiens uncharacterized LOC102725513 (LOC102725513), transcript variant X1, ncRNA'
p1686
sS'578794435'
p1687
S' PREDICTED: Homo sapiens uncharacterized LOC102725513 (LOC102725513), transcript variant X2, ncRNA'
p1688
sS'578794436'
p1689
S' PREDICTED: Homo sapiens uncharacterized LOC102725513 (LOC102725513), transcript variant X3, ncRNA'
p1690
sS'578794437'
p1691
S' PREDICTED: Homo sapiens uncharacterized LOC102725513 (LOC102725513), transcript variant X4, ncRNA'
p1692
sS'578794430'
p1693
S' PREDICTED: Homo sapiens uncharacterized LOC101927468 (RP4-565E6.1), ncRNA'
p1694
sS'578794431'
p1695
S' PREDICTED: Homo sapiens uncharacterized LOC100293748 (LOC100293748), transcript variant X1, ncRNA'
p1696
sS'578794432'
p1697
S' PREDICTED: Homo sapiens uncharacterized LOC100293748 (LOC100293748), transcript variant X2, ncRNA'
p1698
sS'578794433'
p1699
S' PREDICTED: Homo sapiens uncharacterized LOC101929561 (LOC101929561), misc_RNA'
p1700
sS'578794438'
p1701
S' PREDICTED: Homo sapiens uncharacterized LOC102725513 (LOC102725513), transcript variant X5, ncRNA'
p1702
sS'578794439'
p1703
S' PREDICTED: Homo sapiens uncharacterized LOC102725513 (LOC102725513), transcript variant X6, ncRNA'
p1704
sS'514961976'
p1705
S' Homo sapiens uncharacterized protein BC009467 (LOC158960), long non-coding RNA'
p1706
sS'530358128'
p1707
S' PREDICTED: Homo sapiens uncharacterized LOC100505902 (LOC100505902), ncRNA'
p1708
sS'300360527'
p1709
S' Homo sapiens uncharacterized LOC100289361 (LOC100289361), long non-coding RNA'
p1710
sS'530358127'
p1711
S' PREDICTED: Homo sapiens uncharacterized LOC100505920 (LOC100505920), ncRNA'
p1712
sS'530356933'
p1713
S' PREDICTED: Homo sapiens uncharacterized LOC101927988 (LOC101927988), ncRNA'
p1714
sS'530356932'
p1715
S' PREDICTED: Homo sapiens uncharacterized LOC101927949 (LOC101927949), ncRNA'
p1716
sS'530356931'
p1717
S' PREDICTED: Homo sapiens uncharacterized LOC101927929 (LOC101927929), ncRNA'
p1718
sS'530356939'
p1719
S' PREDICTED: Homo sapiens uncharacterized LOC101928101 (LOC101928101), ncRNA'
p1720
sS'578794328'
p1721
S' PREDICTED: Homo sapiens uncharacterized LOC101927084 (RP11-182I10.3), transcript variant X3, ncRNA'
p1722
sS'578794329'
p1723
S' PREDICTED: Homo sapiens uncharacterized LOC101927084 (RP11-182I10.3), transcript variant X4, ncRNA'
p1724
sS'578794320'
p1725
S' PREDICTED: Homo sapiens uncharacterized LOC102724572 (LOC102724572), transcript variant X2, ncRNA'
p1726
sS'578794321'
p1727
S' PREDICTED: Homo sapiens uncharacterized LOC102724548 (LOC102724548), ncRNA'
p1728
sS'578794322'
p1729
S' PREDICTED: Homo sapiens uncharacterized LOC101929986 (LOC101929986), ncRNA'
p1730
sS'578794323'
p1731
S' PREDICTED: Homo sapiens uncharacterized LOC102724481 (LOC102724481), ncRNA'
p1732
sS'578794325'
p1733
S' PREDICTED: Homo sapiens uncharacterized LOC102724416 (LOC102724416), ncRNA'
p1734
sS'578794326'
p1735
S' PREDICTED: Homo sapiens uncharacterized LOC101927084 (RP11-182I10.3), transcript variant X1, ncRNA'
p1736
sS'578794327'
p1737
S' PREDICTED: Homo sapiens uncharacterized LOC101927084 (RP11-182I10.3), transcript variant X2, ncRNA'
p1738
sS'300116239'
p1739
S' Homo sapiens uncharacterized LOC400761 (FLJ27354), long non-coding RNA'
p1740
sS'530357268'
p1741
S' PREDICTED: Homo sapiens uncharacterized LOC101929325 (LOC101929325), ncRNA'
p1742
sS'530357260'
p1743
S' PREDICTED: Homo sapiens uncharacterized LOC101929023 (RP4-655J12.4), transcript variant X1, ncRNA'
p1744
sS'530357267'
p1745
S' PREDICTED: Homo sapiens uncharacterized LOC284561 (LOC284561), misc_RNA'
p1746
sS'302393541'
p1747
S' Homo sapiens uncharacterized LOC728752 (LOC728752), long non-coding RNA'
p1748
sS'302393543'
p1749
S' Homo sapiens uncharacterized LOC100128361 (LOC100128361), long non-coding RNA'
p1750
sS'530357197'
p1751
S' PREDICTED: Homo sapiens uncharacterized LOC101928801 (LOC101928801), ncRNA'
p1752
sS'530357195'
p1753
S' PREDICTED: Homo sapiens uncharacterized LOC400756 (RP11-230B22.1), misc_RNA'
p1754
sS'530357190'
p1755
S' PREDICTED: Homo sapiens uncharacterized LOC101929757 (LOC101929757), ncRNA'
p1756
sS'339895826'
p1757
S' Homo sapiens uncharacterized protein DKFZP434I0714 (DKFZP434I0714), long non-coding RNA'
p1758
sS'454609669'
p1759
S' Homo sapiens platelet-activating factor acetylhydrolase 1b, catalytic subunit 2 (30kDa) pseudogene (LOC643711), transcript variant 2, non-coding RNA'
p1760
sS'397137974'
p1761
S' PREDICTED: Homo sapiens uncharacterized LOC100506929 (LOC100506929), transcript variant X2, ncRNA'
p1762
sS'300068930'
p1763
S' Homo sapiens uncharacterized LOC440034 (DKFZp686K1684), long non-coding RNA'
p1764
sS'530357681'
p1765
S' PREDICTED: Homo sapiens uncharacterized LOC101927861 (LOC101927861), ncRNA'
p1766
sS'530357689'
p1767
S' PREDICTED: Homo sapiens uncharacterized LOC101928031 (LOC101928031), ncRNA'
p1768
sS'578794604'
p1769
S' PREDICTED: Homo sapiens uncharacterized LOC102723739 (LOC102723739), ncRNA'
p1770
sS'530357040'
p1771
S' PREDICTED: Homo sapiens uncharacterized LOC101929385 (LOC101929385), transcript variant X3, ncRNA'
p1772
sS'530357042'
p1773
S' PREDICTED: Homo sapiens uncharacterized LOC101929363 (LOC101929363), ncRNA'
p1774
sS'530357043'
p1775
S' PREDICTED: Homo sapiens uncharacterized LOC101927247 (LOC101927247), transcript variant X1, ncRNA'
p1776
sS'578795118'
p1777
S' PREDICTED: Homo sapiens uncharacterized LOC102723710 (LOC102723710), transcript variant X2, ncRNA'
p1778
sS'578795119'
p1779
S' PREDICTED: Homo sapiens uncharacterized LOC102723733 (LOC102723733), ncRNA'
p1780
sS'302318971'
p1781
S' Homo sapiens uncharacterized LOC284648 (LOC284648), long non-coding RNA'
p1782
sS'578794585'
p1783
S' PREDICTED: Homo sapiens uncharacterized LOC101929733 (LOC101929733), transcript variant X2, ncRNA'
p1784
sS'578794683'
p1785
S' PREDICTED: Homo sapiens putative aquaporin-7-like protein 3-like (LOC100509620), transcript variant X17, misc_RNA'
p1786
sS'217035108'
p1787
S' Homo sapiens uncharacterized LOC100130238 (LOC100130238), long non-coding RNA'
p1788
sS'578794680'
p1789
S' PREDICTED: Homo sapiens putative aquaporin-7-like protein 3-like (LOC100509620), transcript variant X14, misc_RNA'
p1790
sS'578794922'
p1791
S' PREDICTED: Homo sapiens uncharacterized LOC102725370 (LOC102725370), transcript variant X1, ncRNA'
p1792
sS'578794923'
p1793
S' PREDICTED: Homo sapiens uncharacterized LOC102725370 (LOC102725370), transcript variant X2, ncRNA'
p1794
sS'578794920'
p1795
S' PREDICTED: Homo sapiens uncharacterized LOC101927995 (LOC101927995), transcript variant X1, ncRNA'
p1796
sS'578794926'
p1797
S' PREDICTED: Homo sapiens uncharacterized LOC101927854 (LOC101927854), transcript variant X2, ncRNA'
p1798
sS'578794927'
p1799
S' PREDICTED: Homo sapiens uncharacterized LOC101927854 (LOC101927854), transcript variant X3, ncRNA'
p1800
sS'578794924'
p1801
S' PREDICTED: Homo sapiens uncharacterized LOC102725370 (LOC102725370), transcript variant X3, ncRNA'
p1802
sS'578794925'
p1803
S' PREDICTED: Homo sapiens uncharacterized LOC101927854 (LOC101927854), transcript variant X1, ncRNA'
p1804
sS'578794928'
p1805
S' PREDICTED: Homo sapiens uncharacterized LOC102725380 (LOC102725380), ncRNA'
p1806
sS'578794699'
p1807
S' PREDICTED: Homo sapiens uncharacterized LOC101930523 (LOC101930523), transcript variant X1, ncRNA'
p1808
sS'578794696'
p1809
S' PREDICTED: Homo sapiens collagen alpha-1(I) chain-like (LOC100996535), mRNA'
p1810
sS'578794697'
p1811
S' PREDICTED: Homo sapiens uncharacterized LOC100506473 (LOC100506473), transcript variant X2, ncRNA'
p1812
sS'530357856'
p1813
S' PREDICTED: Homo sapiens uncharacterized LOC101927567 (LOC101927567), ncRNA'
p1814
sS'530357855'
p1815
S' PREDICTED: Homo sapiens uncharacterized LOC101927596 (LOC101927596), transcript variant X1, ncRNA'
p1816
sS'530357850'
p1817
S' PREDICTED: Homo sapiens uncharacterized LOC101927454 (LOC101927454), ncRNA'
p1818
sS'530358209'
p1819
S' PREDICTED: Homo sapiens uncharacterized LOC101927432 (LOC101927432), ncRNA'
p1820
sS'530358207'
p1821
S' PREDICTED: Homo sapiens uncharacterized LOC100507210 (LOC100507210), transcript variant X2, ncRNA'
p1822
sS'530358206'
p1823
S' PREDICTED: Homo sapiens uncharacterized LOC101927568 (LOC101927568), transcript variant X1, ncRNA'
p1824
sS'578794749'
p1825
S' PREDICTED: Homo sapiens rho guanine nucleotide exchange factor 4-like (LOC101930241), transcript variant X3, mRNA'
p1826
sS'515871367'
p1827
S' Homo sapiens uncharacterized LOC100287728 (LOC100287728), long non-coding RNA'
p1828
sS'578794742'
p1829
S' PREDICTED: Homo sapiens uncharacterized LOC101927801 (LOC101927801), ncRNA'
p1830
sS'578794743'
p1831
S' PREDICTED: Homo sapiens uncharacterized LOC102723551 (LOC102723551), ncRNA'
p1832
sS'578794740'
p1833
S' PREDICTED: Homo sapiens uncharacterized LOC102723413 (LOC102723413), transcript variant X1, ncRNA'
p1834
sS'578794741'
p1835
S' PREDICTED: Homo sapiens uncharacterized LOC102723413 (LOC102723413), transcript variant X2, ncRNA'
p1836
sS'578794747'
p1837
S' PREDICTED: Homo sapiens rho guanine nucleotide exchange factor 4-like (LOC101930241), transcript variant X1, mRNA'
p1838
sS'578794744'
p1839
S' PREDICTED: Homo sapiens uncharacterized LOC101927834 (LOC101927834), ncRNA'
p1840
sS'530358062'
p1841
S' PREDICTED: Homo sapiens uncharacterized LOC101927346 (LOC101927346), ncRNA'
p1842
sS'212720917'
p1843
S' Homo sapiens uncharacterized LOC100128288 (LOC100128288), long non-coding RNA'
p1844
sS'530356928'
p1845
S' PREDICTED: Homo sapiens uncharacterized LOC100507670 (LOC100507670), ncRNA'
p1846
sS'530358119'
p1847
S' PREDICTED: Homo sapiens uncharacterized LOC101927149 (RP11-59J16.1), transcript variant X1, ncRNA'
p1848
sS'530356920'
p1849
S' PREDICTED: Homo sapiens uncharacterized LOC100129476 (LOC100129476), misc_RNA'
p1850
sS'530356922'
p1851
S' PREDICTED: Homo sapiens uncharacterized LOC101929074 (LOC101929074), ncRNA'
p1852
sS'530358114'
p1853
S' PREDICTED: Homo sapiens uncharacterized LOC101927028 (LOC101927028), transcript variant X1, ncRNA'
p1854
sS'530358113'
p1855
S' PREDICTED: Homo sapiens uncharacterized LOC101927056 (RP11-379B18.5), transcript variant X1, ncRNA'
p1856
sS'530356927'
p1857
S' PREDICTED: Homo sapiens uncharacterized LOC100996521 (LOC100996521), transcript variant X1, ncRNA'
p1858
sS'578794359'
p1859
S' PREDICTED: Homo sapiens uncharacterized LOC102723480 (LOC102723480), transcript variant X2, ncRNA'
p1860
sS'578794358'
p1861
S' PREDICTED: Homo sapiens uncharacterized LOC102723480 (LOC102723480), transcript variant X1, ncRNA'
p1862
sS'578794355'
p1863
S' PREDICTED: Homo sapiens uncharacterized LOC101928118 (RP11-57H12.3), transcript variant X3, ncRNA'
p1864
sS'578794354'
p1865
S' PREDICTED: Homo sapiens uncharacterized LOC101928118 (RP11-57H12.3), transcript variant X2, ncRNA'
p1866
sS'578794357'
p1867
S' PREDICTED: Homo sapiens uncharacterized LOC102723542 (LOC102723542), misc_RNA'
p1868
sS'578794356'
p1869
S' PREDICTED: Homo sapiens uncharacterized LOC101928118 (RP11-57H12.3), transcript variant X4, ncRNA'
p1870
sS'578794351'
p1871
S' PREDICTED: Homo sapiens uncharacterized LOC102723700 (LOC102723700), ncRNA'
p1872
sS'578794350'
p1873
S' PREDICTED: Homo sapiens uncharacterized LOC101930120 (LOC101930120), ncRNA'
p1874
sS'578794353'
p1875
S' PREDICTED: Homo sapiens uncharacterized LOC101928219 (LOC101928219), ncRNA'
p1876
sS'578794352'
p1877
S' PREDICTED: Homo sapiens uncharacterized LOC102723661 (LOC102723661), ncRNA'
p1878
sS'578794599'
p1879
S' PREDICTED: Homo sapiens uncharacterized LOC101929386 (LOC101929386), transcript variant X1, ncRNA'
p1880
sS'578794598'
p1881
S' PREDICTED: Homo sapiens uncharacterized LOC102723530 (LOC102723530), ncRNA'
p1882
sS'578794593'
p1883
S' PREDICTED: Homo sapiens uncharacterized LOC101929251 (LOC101929251), transcript variant X2, ncRNA'
p1884
sS'578794591'
p1885
S' PREDICTED: Homo sapiens uncharacterized LOC101929230 (LOC101929230), ncRNA'
p1886
sS'578794597'
p1887
S' PREDICTED: Homo sapiens uncharacterized LOC101929272 (LOC101929272), transcript variant X2, ncRNA'
p1888
sS'578794596'
p1889
S' PREDICTED: Homo sapiens uncharacterized LOC102723419 (LOC102723419), ncRNA'
p1890
sS'578794595'
p1891
S' PREDICTED: Homo sapiens uncharacterized LOC102723401 (LOC102723401), ncRNA'
p1892
sS'578794594'
p1893
S' PREDICTED: Homo sapiens uncharacterized LOC102723389 (LOC102723389), ncRNA'
p1894
sS'530357219'
p1895
S' PREDICTED: Homo sapiens uncharacterized LOC101928118 (RP11-57H12.3), transcript variant X1, ncRNA'
p1896
sS'530357218'
p1897
S' PREDICTED: Homo sapiens uncharacterized LOC100996630 (LOC100996630), ncRNA'
p1898
sS'530357217'
p1899
S' PREDICTED: Homo sapiens uncharacterized LOC101928169 (LOC101928169), ncRNA'
p1900
sS'530357213'
p1901
S' PREDICTED: Homo sapiens uncharacterized LOC101928270 (RP11-413P11.1), transcript variant X2, ncRNA'
p1902
sS'530357212'
p1903
S' PREDICTED: Homo sapiens uncharacterized LOC101928270 (RP11-413P11.1), transcript variant X1, ncRNA'
p1904
sS'224967097'
p1905
S' Homo sapiens SUMO1 activating enzyme subunit 1 pseudogene (LOC341056), non-coding RNA'
p1906
sS'313760527'
p1907
S' Homo sapiens programmed cell death 2 pseudogene (LOC728739), non-coding RNA'
p1908
sS'530357037'
p1909
S' PREDICTED: Homo sapiens uncharacterized LOC100509303 (LOC100509303), transcript variant 3, ncRNA'
p1910
sS'530357036'
p1911
S' PREDICTED: Homo sapiens uncharacterized LOC101929476 (LOC101929476), ncRNA'
p1912
sS'530357033'
p1913
S' PREDICTED: Homo sapiens uncharacterized LOC91548 (RP11-122M14.1), misc_RNA'
p1914
sS'530357038'
p1915
S' PREDICTED: Homo sapiens uncharacterized LOC101929385 (LOC101929385), transcript variant X1, ncRNA'
p1916
sS'578794751'
p1917
S' PREDICTED: Homo sapiens uncharacterized LOC102723797 (LOC102723797), ncRNA'
p1918
sS'578794628'
p1919
S' PREDICTED: Homo sapiens uncharacterized LOC101927213 (LOC101927213), ncRNA'
p1920
sS'578794753'
p1921
S' PREDICTED: Homo sapiens uncharacterized LOC102723718 (LOC102723718), ncRNA'
p1922
sS'306518576'
p1923
S' Homo sapiens serine/arginine-rich splicing factor 3 pseudogene (LOC100500773), non-coding RNA'
p1924
sS'338753382'
p1925
S' Homo sapiens uncharacterized LOC644554 (LOC644554), long non-coding RNA'
p1926
sS'530357142'
p1927
S' PREDICTED: Homo sapiens uncharacterized LOC101930417 (LOC101930417), ncRNA'
p1928
sS'530357145'
p1929
S' PREDICTED: Homo sapiens uncharacterized LOC400748 (LOC400748), misc_RNA'
p1930
sS'530357144'
p1931
S' PREDICTED: Homo sapiens uncharacterized LOC100134237 (LOC100134237), misc_RNA'
p1932
sS'571330854'
p1933
S' Homo sapiens uncharacterized LOC100996249 (LOC100996249), transcript variant 2, long non-coding RNA'
p1934
sS'213513106'
p1935
S' Homo sapiens uncharacterized LOC100128573 (LOC100128573), long non-coding RNA'
p1936
sS'578794917'
p1937
S' PREDICTED: Homo sapiens uncharacterized LOC102724048 (LOC102724048), ncRNA'
p1938
sS'578794916'
p1939
S' PREDICTED: Homo sapiens uncharacterized LOC101928153 (LOC101928153), ncRNA'
p1940
sS'578794915'
p1941
S' PREDICTED: Homo sapiens uncharacterized LOC101928234 (LOC101928234), ncRNA'
p1942
sS'578794914'
p1943
S' PREDICTED: Homo sapiens uncharacterized LOC101928323 (LOC101928323), transcript variant X3, ncRNA'
p1944
sS'578794913'
p1945
S' PREDICTED: Homo sapiens uncharacterized LOC101928323 (LOC101928323), transcript variant X2, ncRNA'
p1946
sS'578794912'
p1947
S' PREDICTED: Homo sapiens uncharacterized LOC101928323 (LOC101928323), transcript variant X1, ncRNA'
p1948
sS'578794911'
p1949
S' PREDICTED: Homo sapiens uncharacterized LOC102724231 (LOC102724231), transcript variant X2, ncRNA'
p1950
sS'578794910'
p1951
S' PREDICTED: Homo sapiens uncharacterized LOC102724231 (LOC102724231), transcript variant X1, ncRNA'
p1952
sS'578794919'
p1953
S' PREDICTED: Homo sapiens uncharacterized LOC101927995 (LOC101927995), transcript variant X2, ncRNA'
p1954
sS'578794918'
p1955
S' PREDICTED: Homo sapiens uncharacterized LOC101928114 (LOC101928114), ncRNA'
p1956
sS'578794634'
p1957
S' PREDICTED: Homo sapiens uncharacterized LOC101927402 (LOC101927402), mRNA'
p1958
sS'530358322'
p1959
S' PREDICTED: Homo sapiens uncharacterized LOC101929090 (LOC101929090), ncRNA'
p1960
sS'530358324'
p1961
S' PREDICTED: Homo sapiens uncharacterized LOC101929134 (LOC101929134), ncRNA'
p1962
sS'222831626'
p1963
S' Homo sapiens placenta-specific 9 pseudogene (LOC389033), non-coding RNA'
p1964
sS'224451046'
p1965
S' Homo sapiens uncharacterized LOC145474 (LOC145474), long non-coding RNA'
p1966
sS'530357846'
p1967
S' PREDICTED: Homo sapiens uncharacterized LOC101927366 (LOC101927366), ncRNA'
p1968
sS'530358218'
p1969
S' PREDICTED: Homo sapiens uncharacterized LOC401098 (LOC401098), misc_RNA'
p1970
sS'530358210'
p1971
S' PREDICTED: Homo sapiens uncharacterized LOC101927409 (LOC101927409), ncRNA'
p1972
sS'338827741'
p1973
S' Homo sapiens beta-defensin 131-like (LOC100129216), mRNA'
p1974
sS'515871371'
p1975
S' Homo sapiens uncharacterized LOC100505984 (LOC100505984), long non-coding RNA'
p1976
sS'578794778'
p1977
S' PREDICTED: Homo sapiens uncharacterized LOC102724194 (LOC102724194), ncRNA'
p1978
sS'578794777'
p1979
S' PREDICTED: Homo sapiens uncharacterized LOC102724157 (LOC102724157), ncRNA'
p1980
sS'578794776'
p1981
S' PREDICTED: Homo sapiens uncharacterized LOC101926931 (LOC101926931), ncRNA'
p1982
sS'578794775'
p1983
S' PREDICTED: Homo sapiens uncharacterized LOC102724136 (LOC102724136), ncRNA'
p1984
sS'578794774'
p1985
S' PREDICTED: Homo sapiens uncharacterized LOC101929753 (LOC101929753), transcript variant X1, ncRNA'
p1986
sS'578794773'
p1987
S' PREDICTED: Homo sapiens uncharacterized LOC101929753 (LOC101929753), transcript variant X3, ncRNA'
p1988
sS'578794772'
p1989
S' PREDICTED: Homo sapiens uncharacterized LOC101929753 (LOC101929753), transcript variant X2, ncRNA'
p1990
sS'578794771'
p1991
S' PREDICTED: Homo sapiens uncharacterized LOC100130256 (AC007277.3), misc_RNA'
p1992
sS'578794770'
p1993
S' PREDICTED: Homo sapiens uncharacterized LOC102724081 (LOC102724081), ncRNA'
p1994
sS'310114097'
p1995
S' PREDICTED: Homo sapiens uncharacterized LOC100506014 (LOC100506014), transcript variant X1, ncRNA'
p1996
sS'578795183'
p1997
S' PREDICTED: Homo sapiens uncharacterized LOC101929448 (RP11-328K4.1), transcript variant X1, ncRNA'
p1998
sS'578795181'
p1999
S' PREDICTED: Homo sapiens uncharacterized LOC101929401 (LOC101929401), ncRNA'
p2000
sS'578795180'
p2001
S' PREDICTED: Homo sapiens uncharacterized LOC101929375 (LOC101929375), ncRNA'
p2002
sS'578795187'
p2003
S' PREDICTED: Homo sapiens uncharacterized LOC101929491 (LOC101929491), transcript variant X3, ncRNA'
p2004
sS'578795186'
p2005
S' PREDICTED: Homo sapiens uncharacterized LOC101929491 (LOC101929491), transcript variant X1, ncRNA'
p2006
sS'578795185'
p2007
S' PREDICTED: Homo sapiens uncharacterized LOC101929491 (LOC101929491), transcript variant X2, ncRNA'
p2008
sS'578795184'
p2009
S' PREDICTED: Homo sapiens uncharacterized LOC101929448 (RP11-328K4.1), transcript variant X2, ncRNA'
p2010
sS'578795189'
p2011
S' PREDICTED: Homo sapiens uncharacterized LOC102723807 (LOC102723807), ncRNA'
p2012
sS'530358103'
p2013
S' PREDICTED: Homo sapiens uncharacterized LOC101929485 (LOC101929485), transcript variant X1, ncRNA'
p2014
sS'530358105'
p2015
S' PREDICTED: Homo sapiens uncharacterized LOC101929453 (LOC101929453), transcript variant X1, ncRNA'
p2016
sS'530358107'
p2017
S' PREDICTED: Homo sapiens uncharacterized LOC101929411 (LOC101929411), ncRNA'
p2018
sS'530356955'
p2019
S' PREDICTED: Homo sapiens uncharacterized LOC101928512 (LOC101928512), transcript variant X3, ncRNA'
p2020
sS'530356957'
p2021
S' PREDICTED: Homo sapiens uncharacterized LOC101928459 (LOC101928459), ncRNA'
p2022
sS'530356953'
p2023
S' PREDICTED: Homo sapiens uncharacterized LOC101928512 (LOC101928512), transcript variant X1, ncRNA'
p2024
sS'578794629'
p2025
S' PREDICTED: Homo sapiens uncharacterized LOC102724142 (LOC102724142), ncRNA'
p2026
sS'310114434'
p2027
S' PREDICTED: Homo sapiens uncharacterized LOC100293612 (LOC100293612), misc_RNA'
p2028
sS'91206427'
p2029
S' Homo sapiens seven transmembrane helix receptor (LOC650293), mRNA'
p2030
sS'530358047'
p2031
S' PREDICTED: Homo sapiens Fanconi anemia group D2 protein-like (LOC101929530), mRNA'
p2032
sS'578794348'
p2033
S' PREDICTED: Homo sapiens uncharacterized LOC101928334 (LOC101928334), transcript variant X4, ncRNA'
p2034
sS'578794346'
p2035
S' PREDICTED: Homo sapiens uncharacterized LOC101928334 (LOC101928334), transcript variant X2, ncRNA'
p2036
sS'578794347'
p2037
S' PREDICTED: Homo sapiens uncharacterized LOC101928334 (LOC101928334), transcript variant X3, ncRNA'
p2038
sS'578794344'
p2039
S' PREDICTED: Homo sapiens uncharacterized LOC102723784 (LOC102723784), ncRNA'
p2040
sS'578794345'
p2041
S' PREDICTED: Homo sapiens uncharacterized LOC101928334 (LOC101928334), transcript variant X1, ncRNA'
p2042
sS'578794342'
p2043
S' PREDICTED: Homo sapiens uncharacterized LOC102725447 (LOC102725447), ncRNA'
p2044
sS'578794340'
p2045
S' PREDICTED: Homo sapiens uncharacterized LOC102724125 (LOC102724125), transcript variant X1, ncRNA'
p2046
sS'578794341'
p2047
S' PREDICTED: Homo sapiens uncharacterized LOC102724125 (LOC102724125), transcript variant X2, ncRNA'
p2048
sS'578794588'
p2049
S' PREDICTED: Homo sapiens uncharacterized LOC102724898 (LOC102724898), ncRNA'
p2050
sS'578794589'
p2051
S' PREDICTED: Homo sapiens uncharacterized LOC101928149 (LOC101928149), ncRNA'
p2052
sS'578794584'
p2053
S' PREDICTED: Homo sapiens uncharacterized LOC101929733 (LOC101929733), transcript variant X1, ncRNA'
p2054
sS'578794243'
p2055
S' PREDICTED: Homo sapiens uncharacterized LOC102724429 (LOC102724429), ncRNA'
p2056
sS'578794587'
p2057
S' PREDICTED: Homo sapiens uncharacterized LOC102724948 (LOC102724948), ncRNA'
p2058
sS'578794580'
p2059
S' PREDICTED: Homo sapiens uncharacterized LOC102724007 (LOC102724007), transcript variant X4, ncRNA'
p2060
sS'578794581'
p2061
S' PREDICTED: Homo sapiens uncharacterized LOC102724007 (LOC102724007), transcript variant X5, ncRNA'
p2062
sS'578794582'
p2063
S' PREDICTED: Homo sapiens uncharacterized LOC102724007 (LOC102724007), transcript variant X6, ncRNA'
p2064
sS'578794583'
p2065
S' PREDICTED: Homo sapiens uncharacterized LOC102724007 (LOC102724007), transcript variant X7, ncRNA'
p2066
sS'530357567'
p2067
S' PREDICTED: Homo sapiens uncharacterized LOC101927262 (LOC101927262), transcript variant X1, ncRNA'
p2068
sS'530357204'
p2069
S' PREDICTED: Homo sapiens extensin-like (LOC101930320), mRNA'
p2070
sS'530357200'
p2071
S' PREDICTED: Homo sapiens uncharacterized LOC101928895 (LOC101928895), ncRNA'
p2072
sS'578794991'
p2073
S' PREDICTED: Homo sapiens uncharacterized LOC102723611 (LOC102723611), ncRNA'
p2074
sS'530357569'
p2075
S' PREDICTED: Homo sapiens uncharacterized LOC727944 (LOC727944), transcript variant 1, ncRNA'
p2076
sS'530357568'
p2077
S' PREDICTED: Homo sapiens uncharacterized LOC101927262 (LOC101927262), transcript variant X2, ncRNA'
p2078
sS'578795169'
p2079
S' PREDICTED: Homo sapiens uncharacterized LOC102723458 (LOC102723458), ncRNA'
p2080
sS'578795168'
p2081
S' PREDICTED: Homo sapiens uncharacterized LOC101929118 (RP11-10L7.1), ncRNA'
p2082
sS'578795161'
p2083
S' PREDICTED: Homo sapiens uncharacterized LOC101928963 (LOC101928963), ncRNA'
p2084
sS'578795163'
p2085
S' PREDICTED: Homo sapiens uncharacterized LOC102723358 (LOC102723358), ncRNA'
p2086
sS'578795162'
p2087
S' PREDICTED: Homo sapiens uncharacterized LOC102723338 (LOC102723338), ncRNA'
p2088
sS'578795165'
p2089
S' PREDICTED: Homo sapiens uncharacterized LOC102723404 (LOC102723404), transcript variant X1, ncRNA'
p2090
sS'578795167'
p2091
S' PREDICTED: Homo sapiens uncharacterized LOC102723404 (LOC102723404), transcript variant X3, ncRNA'
p2092
sS'578795166'
p2093
S' PREDICTED: Homo sapiens uncharacterized LOC102723404 (LOC102723404), transcript variant X2, ncRNA'
p2094
sS'313760605'
p2095
S' Homo sapiens uncharacterized LOC100288911 (LOC100288911), long non-coding RNA'
p2096
sS'336595076'
p2097
S' Homo sapiens uncharacterized LOC100288846 (LOC100288846), long non-coding RNA'
p2098
sS'530357026'
p2099
S' PREDICTED: Homo sapiens uncharacterized LOC101929666 (LOC101929666), ncRNA'
p2100
sS'530357025'
p2101
S' PREDICTED: Homo sapiens uncharacterized LOC101929648 (LOC101929648), ncRNA'
p2102
sS'530357023'
p2103
S' PREDICTED: Homo sapiens uncharacterized LOC101929689 (LOC101929689), ncRNA'
p2104
sS'530357020'
p2105
S' PREDICTED: Homo sapiens uncharacterized LOC101929750 (LOC101929750), ncRNA'
p2106
sS'530357159'
p2107
S' PREDICTED: Homo sapiens uncharacterized LOC101929609 (LOC101929609), ncRNA'
p2108
sS'530357152'
p2109
S' PREDICTED: Homo sapiens uncharacterized LOC101930541 (LOC101930541), ncRNA'
p2110
sS'530357153'
p2111
S' PREDICTED: Homo sapiens uncharacterized LOC101929673 (LOC101929673), ncRNA'
p2112
sS'299782609'
p2113
S" Homo sapiens protein phosphatase 2, regulatory subunit B'', beta pseudogene (LOC390705), non-coding RNA"
p2114
sS'578794908'
p2115
S' PREDICTED: Homo sapiens uncharacterized LOC102724305 (LOC102724305), ncRNA'
p2116
sS'578794909'
p2117
S' PREDICTED: Homo sapiens uncharacterized LOC102724297 (LOC102724297), ncRNA'
p2118
sS'578794901'
p2119
S' PREDICTED: Homo sapiens uncharacterized LOC102724438 (LOC102724438), ncRNA'
p2120
sS'578794902'
p2121
S' PREDICTED: Homo sapiens Sjoegren syndrome nuclear autoantigen 1 homolog (LOC102724426), mRNA'
p2122
sS'578794904'
p2123
S' PREDICTED: Homo sapiens uncharacterized LOC101928838 (LOC101928838), transcript variant X3, ncRNA'
p2124
sS'578794905'
p2125
S' PREDICTED: Homo sapiens uncharacterized LOC101928838 (LOC101928838), transcript variant X2, ncRNA'
p2126
sS'578794906'
p2127
S' PREDICTED: Homo sapiens uncharacterized LOC101928814 (LOC101928814), ncRNA'
p2128
sS'567757627'
p2129
S' Homo sapiens uncharacterized LOC101929625 (LOC101929625), long non-coding RNA'
p2130
sS'567757623'
p2131
S' Homo sapiens uncharacterized LOC100505515 (LOC100505515), long non-coding RNA'
p2132
sS'530358357'
p2133
S' PREDICTED: Homo sapiens uncharacterized LOC101927052 (LOC101927052), transcript variant X1, ncRNA'
p2134
sS'530358356'
p2135
S' PREDICTED: Homo sapiens uncharacterized LOC100996694 (RP11-700N1.1), transcript variant X2, ncRNA'
p2136
sS'530358351'
p2137
S' PREDICTED: Homo sapiens uncharacterized LOC101929741 (LOC101929741), ncRNA'
p2138
sS'530357788'
p2139
S' PREDICTED: Homo sapiens uncharacterized LOC101928361 (LOC101928361), ncRNA'
p2140
sS'530357839'
p2141
S' PREDICTED: Homo sapiens uncharacterized LOC101927156 (AC104820.2), ncRNA'
p2142
sS'530357838'
p2143
S' PREDICTED: Homo sapiens uncharacterized LOC101927073 (LOC101927073), ncRNA'
p2144
sS'530357783'
p2145
S' PREDICTED: Homo sapiens uncharacterized LOC101928526 (LOC101928526), ncRNA'
p2146
sS'530357782'
p2147
S' PREDICTED: Homo sapiens uncharacterized LOC101928553 (LOC101928553), ncRNA'
p2148
sS'530357831'
p2149
S' PREDICTED: Homo sapiens uncharacterized LOC100128905 (LOC100128905), mRNA'
p2150
sS'530357833'
p2151
S' PREDICTED: Homo sapiens uncharacterized LOC101930292 (LOC101930292), transcript variant X1, ncRNA'
p2152
sS'530357784'
p2153
S' PREDICTED: Homo sapiens uncharacterized LOC100505498 (LOC100505498), mRNA'
p2154
sS'315221154'
p2155
S' Homo sapiens uncharacterized LOC100506548 (LOC100506548), long non-coding RNA'
p2156
sS'194097393'
p2157
S' Homo sapiens uncharacterized LOC100134868 (LOC100134868), long non-coding RNA'
p2158
sS'578794760'
p2159
S' PREDICTED: Homo sapiens uncharacterized LOC102723949 (LOC102723949), transcript variant X1, ncRNA'
p2160
sS'578794761'
p2161
S' PREDICTED: Homo sapiens uncharacterized LOC102723949 (LOC102723949), transcript variant X2, ncRNA'
p2162
sS'578794762'
p2163
S' PREDICTED: Homo sapiens uncharacterized LOC101929633 (LOC101929633), transcript variant X1, ncRNA'
p2164
sS'578794763'
p2165
S' PREDICTED: Homo sapiens uncharacterized LOC101929633 (LOC101929633), transcript variant X3, ncRNA'
p2166
sS'578794764'
p2167
S' PREDICTED: Homo sapiens uncharacterized LOC101929633 (LOC101929633), transcript variant X4, ncRNA'
p2168
sS'578794765'
p2169
S' PREDICTED: Homo sapiens uncharacterized LOC101929658 (LOC101929658), transcript variant X2, ncRNA'
p2170
sS'578794766'
p2171
S' PREDICTED: Homo sapiens uncharacterized LOC101929658 (LOC101929658), transcript variant X1, ncRNA'
p2172
sS'578794767'
p2173
S' PREDICTED: Homo sapiens uncharacterized LOC101929658 (LOC101929658), transcript variant X3, ncRNA'
p2174
sS'578794768'
p2175
S' PREDICTED: Homo sapiens uncharacterized LOC102724058 (LOC102724058), ncRNA'
p2176
sS'578794769'
p2177
S' PREDICTED: Homo sapiens uncharacterized LOC102724067 (LOC102724067), ncRNA'
p2178
sS'530357941'
p2179
S' PREDICTED: Homo sapiens uncharacterized LOC285095 (LOC285095), transcript variant X3, misc_RNA'
p2180
sS'530357947'
p2181
S' PREDICTED: Homo sapiens uncharacterized LOC101930506 (LOC101930506), misc_RNA'
p2182
sS'530357948'
p2183
S' PREDICTED: Homo sapiens uncharacterized LOC100509490 (LOC100509490), mRNA'
p2184
sS'210147393'
p2185
S' Homo sapiens uncharacterized LOC646762 (LOC646762), long non-coding RNA'
p2186
sS'578795194'
p2187
S' PREDICTED: Homo sapiens uncharacterized LOC102723905 (LOC102723905), ncRNA'
p2188
sS'578795195'
p2189
S' PREDICTED: Homo sapiens uncharacterized LOC102723914 (LOC102723914), ncRNA'
p2190
sS'578795196'
p2191
S' PREDICTED: Homo sapiens centrosomal protein of 170 kDa-like (LOC102725459), mRNA'
p2192
sS'578795190'
p2193
S' PREDICTED: Homo sapiens uncharacterized LOC101929595 (RP11-286E11.1), transcript variant X1, ncRNA'
p2194
sS'578795191'
p2195
S' PREDICTED: Homo sapiens uncharacterized LOC101929595 (RP11-286E11.1), transcript variant X2, ncRNA'
p2196
sS'578795192'
p2197
S' PREDICTED: Homo sapiens uncharacterized LOC102723880 (LOC102723880), ncRNA'
p2198
sS'578795193'
p2199
S' PREDICTED: Homo sapiens uncharacterized LOC102723896 (LOC102723896), ncRNA'
p2200
sS'578794702'
p2201
S' PREDICTED: Homo sapiens uncharacterized LOC101927110 (LOC101927110), transcript variant X3, ncRNA'
p2202
sS'578795198'
p2203
S' PREDICTED: Homo sapiens uncharacterized LOC102723956 (LOC102723956), ncRNA'
p2204
sS'578795199'
p2205
S' PREDICTED: Homo sapiens uncharacterized LOC102723967 (LOC102723967), transcript variant X1, ncRNA'
p2206
sS'530358175'
p2207
S' PREDICTED: Homo sapiens uncharacterized LOC101928166 (LOC101928166), ncRNA'
p2208
sS'530358177'
p2209
S' PREDICTED: Homo sapiens uncharacterized LOC101928105 (LOC101928105), transcript variant X1, ncRNA'
p2210
sS'530356948'
p2211
S' PREDICTED: Homo sapiens uncharacterized LOC101928177 (LOC101928177), transcript variant X1, ncRNA'
p2212
sS'530356943'
p2213
S' PREDICTED: Homo sapiens uncharacterized LOC101928319 (LOC101928319), ncRNA'
p2214
sS'578794373'
p2215
S' PREDICTED: Homo sapiens uncharacterized LOC102724892 (LOC102724892), ncRNA'
p2216
sS'578794372'
p2217
S' PREDICTED: Homo sapiens uncharacterized LOC101930232 (LOC101930232), transcript variant X1, ncRNA'
p2218
sS'578794371'
p2219
S' PREDICTED: Homo sapiens uncharacterized LOC101930232 (LOC101930232), transcript variant X2, ncRNA'
p2220
sS'578794374'
p2221
S' PREDICTED: Homo sapiens uncharacterized LOC101927773 (LOC101927773), transcript variant X3, ncRNA'
p2222
sS'578794379'
p2223
S' PREDICTED: Homo sapiens uncharacterized LOC101927656 (LOC101927656), transcript variant X1, ncRNA'
p2224
sS'530358009'
p2225
S' PREDICTED: Homo sapiens uncharacterized LOC101928263 (LOC101928263), ncRNA'
p2226
sS'578794570'
p2227
S' PREDICTED: Homo sapiens uncharacterized LOC102723909 (LOC102723909), ncRNA'
p2228
sS'578794573'
p2229
S' PREDICTED: Homo sapiens uncharacterized LOC101929882 (LOC101929882), transcript variant X1, ncRNA'
p2230
sS'578794572'
p2231
S' PREDICTED: Homo sapiens uncharacterized LOC101929643 (LOC101929643), ncRNA'
p2232
sS'578794575'
p2233
S' PREDICTED: Homo sapiens uncharacterized LOC101929691 (LOC101929691), ncRNA'
p2234
sS'578794574'
p2235
S' PREDICTED: Homo sapiens uncharacterized LOC101929882 (LOC101929882), transcript variant X2, ncRNA'
p2236
sS'578794577'
p2237
S' PREDICTED: Homo sapiens uncharacterized LOC102724007 (LOC102724007), transcript variant X1, ncRNA'
p2238
sS'578794576'
p2239
S' PREDICTED: Homo sapiens uncharacterized LOC102723993 (LOC102723993), ncRNA'
p2240
sS'578794579'
p2241
S' PREDICTED: Homo sapiens uncharacterized LOC102724007 (LOC102724007), transcript variant X3, ncRNA'
p2242
sS'578794578'
p2243
S' PREDICTED: Homo sapiens uncharacterized LOC102724007 (LOC102724007), transcript variant X2, ncRNA'
p2244
sS'530358003'
p2245
S' PREDICTED: Homo sapiens uncharacterized LOC101928529 (LOC101928529), ncRNA'
p2246
sS'530358005'
p2247
S' PREDICTED: Homo sapiens uncharacterized LOC100506319 (LOC100506319), transcript variant 2, ncRNA'
p2248
sS'530358004'
p2249
S' PREDICTED: Homo sapiens uncharacterized LOC100506319 (LOC100506319), transcript variant 1, ncRNA'
p2250
sS'530358006'
p2251
S' PREDICTED: Homo sapiens uncharacterized LOC101928458 (LOC101928458), ncRNA'
p2252
sS'221307589'
p2253
S' Homo sapiens uncharacterized protein FLJ30679 (FLJ30679), long non-coding RNA'
p2254
sS'530357233'
p2255
S' PREDICTED: Homo sapiens uncharacterized LOC101927773 (LOC101927773), transcript variant X1, ncRNA'
p2256
sS'530357234'
p2257
S' PREDICTED: Homo sapiens uncharacterized LOC101927773 (LOC101927773), transcript variant X2, ncRNA'
p2258
sS'284005198'
p2259
S' Homo sapiens glycine cleavage system protein H (aminomethyl carrier) pseudogene (LOC729080), non-coding RNA'
p2260
sS'578794485'
p2261
S' PREDICTED: Homo sapiens uncharacterized LOC101929120 (RP11-547I7.2), transcript variant X1, ncRNA'
p2262
sS'578794484'
p2263
S' PREDICTED: Homo sapiens uncharacterized LOC102724954 (LOC102724954), transcript variant X2, ncRNA'
p2264
sS'578794487'
p2265
S' PREDICTED: Homo sapiens uncharacterized LOC102724897 (LOC102724897), ncRNA'
p2266
sS'578794486'
p2267
S' PREDICTED: Homo sapiens uncharacterized LOC102724919 (LOC102724919), ncRNA'
p2268
sS'578794481'
p2269
S' PREDICTED: Homo sapiens uncharacterized LOC102723336 (LOC102723336), transcript variant X2, ncRNA'
p2270
sS'578794480'
p2271
S' PREDICTED: Homo sapiens uncharacterized LOC102723336 (LOC102723336), transcript variant X1, ncRNA'
p2272
sS'578794483'
p2273
S' PREDICTED: Homo sapiens uncharacterized LOC102724954 (LOC102724954), transcript variant X1, ncRNA'
p2274
sS'578794482'
p2275
S' PREDICTED: Homo sapiens uncharacterized LOC101929184 (LOC101929184), ncRNA'
p2276
sS'578795172'
p2277
S' PREDICTED: Homo sapiens uncharacterized LOC102723576 (LOC102723576), ncRNA'
p2278
sS'578795173'
p2279
S' PREDICTED: Homo sapiens uncharacterized LOC285556 (LOC285556), transcript variant X1, mRNA'
p2280
sS'578795170'
p2281
S' PREDICTED: Homo sapiens uncharacterized LOC102723488 (LOC102723488), ncRNA'
p2282
sS'578795171'
p2283
S' PREDICTED: Homo sapiens uncharacterized LOC101929250 (LOC101929250), ncRNA'
p2284
sS'578794489'
p2285
S' PREDICTED: Homo sapiens uncharacterized LOC102724857 (LOC102724857), ncRNA'
p2286
sS'578795177'
p2287
S' PREDICTED: Homo sapiens uncharacterized LOC285556 (LOC285556), transcript variant X3, mRNA'
p2288
sS'578795175'
p2289
S' PREDICTED: Homo sapiens uncharacterized LOC285556 (LOC285556), transcript variant X2, mRNA'
p2290
sS'491231451'
p2291
S' Homo sapiens uncharacterized LOC100506639 (LOC100506639), long non-coding RNA'
p2292
sS'397138220'
p2293
S' PREDICTED: Homo sapiens uncharacterized LOC100996624 (LOC100996624), ncRNA'
p2294
sS'578794399'
p2295
S' PREDICTED: Homo sapiens uncharacterized LOC101929438 (RP6-206I17.2), transcript variant X3, ncRNA'
p2296
sS'578794398'
p2297
S' PREDICTED: Homo sapiens uncharacterized LOC101929438 (RP6-206I17.2), transcript variant X2, ncRNA'
p2298
sS'578794391'
p2299
S' PREDICTED: Homo sapiens uncharacterized LOC101929023 (RP4-655J12.4), transcript variant X3, ncRNA'
p2300
sS'578794390'
p2301
S' PREDICTED: Homo sapiens uncharacterized LOC101929023 (RP4-655J12.4), transcript variant X2, ncRNA'
p2302
sS'578794393'
p2303
S' PREDICTED: Homo sapiens uncharacterized LOC101929147 (RP11-418J17.1), transcript variant X2, ncRNA'
p2304
sS'578794392'
p2305
S' PREDICTED: Homo sapiens uncharacterized LOC101929023 (RP4-655J12.4), transcript variant X4, ncRNA'
p2306
sS'578794395'
p2307
S' PREDICTED: Homo sapiens uncharacterized LOC101928066 (LOC101928066), transcript variant X2, ncRNA'
p2308
sS'578794394'
p2309
S' PREDICTED: Homo sapiens uncharacterized LOC101928066 (LOC101928066), transcript variant X1, ncRNA'
p2310
sS'578794397'
p2311
S' PREDICTED: Homo sapiens uncharacterized LOC101929438 (RP6-206I17.2), transcript variant X1, ncRNA'
p2312
sS'578794396'
p2313
S' PREDICTED: Homo sapiens uncharacterized LOC102724893 (LOC102724893), ncRNA'
p2314
sS'410170013'
p2315
S' PREDICTED: Homo sapiens uncharacterized LOC101060085 (LOC101060085), mRNA'
p2316
sS'530358094'
p2317
S' PREDICTED: Homo sapiens uncharacterized LOC151760 (LOC151760), misc_RNA'
p2318
sS'530358095'
p2319
S' PREDICTED: Homo sapiens uncharacterized LOC101929644 (LOC101929644), ncRNA'
p2320
sS'578794860'
p2321
S' PREDICTED: Homo sapiens uncharacterized LOC102725340 (LOC102725340), mRNA'
p2322
sS'530358098'
p2323
S' PREDICTED: Homo sapiens uncharacterized LOC101929579 (RP11-446H18.5), transcript variant X1, ncRNA'
p2324
sS'530358099'
p2325
S' PREDICTED: Homo sapiens uncharacterized LOC101929579 (RP11-446H18.5), transcript variant X2, ncRNA'
p2326
sS'530357164'
p2327
S' PREDICTED: Homo sapiens uncharacterized LOC101927458 (LOC101927458), transcript variant X2, ncRNA'
p2328
sS'558757430'
p2329
S' Homo sapiens uncharacterized LOC100506406 (LOC100506406), long non-coding RNA'
p2330
sS'578794979'
p2331
S' PREDICTED: Homo sapiens uncharacterized LOC102724876 (LOC102724876), ncRNA'
p2332
sS'578794978'
p2333
S' PREDICTED: Homo sapiens uncharacterized LOC101929453 (LOC101929453), transcript variant X2, ncRNA'
p2334
sS'578794975'
p2335
S' PREDICTED: Homo sapiens uncharacterized LOC101929514 (LOC101929514), transcript variant X2, ncRNA'
p2336
sS'578794974'
p2337
S' PREDICTED: Homo sapiens uncharacterized LOC101929534 (LOC101929534), transcript variant X2, ncRNA'
p2338
sS'578794977'
p2339
S' PREDICTED: Homo sapiens uncharacterized LOC101929485 (LOC101929485), transcript variant X2, ncRNA'
p2340
sS'578794976'
p2341
S' PREDICTED: Homo sapiens uncharacterized LOC101929514 (LOC101929514), transcript variant X1, ncRNA'
p2342
sS'578794971'
p2343
S' PREDICTED: Homo sapiens uncharacterized LOC102723430 (LOC102723430), ncRNA'
p2344
sS'578794970'
p2345
S' PREDICTED: Homo sapiens uncharacterized LOC101929734 (LOC101929734), ncRNA'
p2346
sS'578794973'
p2347
S' PREDICTED: Homo sapiens uncharacterized LOC101929534 (LOC101929534), transcript variant X1, ncRNA'
p2348
sS'578794972'
p2349
S' PREDICTED: Homo sapiens uncharacterized LOC102725349 (LOC102725349), ncRNA'
p2350
sS'530356967'
p2351
S' PREDICTED: Homo sapiens uncharacterized LOC101929459 (LOC101929459), transcript variant X1, ncRNA'
p2352
sS'578795223'
p2353
S' PREDICTED: Homo sapiens uncharacterized LOC102724501 (LOC102724501), transcript variant X1, ncRNA'
p2354
sS'223468635'
p2355
S' Homo sapiens makorin ring finger protein 1 pseudogene (LOC441455), non-coding RNA'
p2356
sS'224809580'
p2357
S' Homo sapiens uncharacterized LOC283070 (LOC283070), long non-coding RNA'
p2358
sS'530358348'
p2359
S' PREDICTED: Homo sapiens uncharacterized LOC101929654 (LOC101929654), ncRNA'
p2360
sS'530358349'
p2361
S' PREDICTED: Homo sapiens centrosomal protein of 170 kDa-like (LOC101930464), mRNA'
p2362
sS'530358347'
p2363
S' PREDICTED: Homo sapiens uncharacterized LOC101929621 (LOC101929621), ncRNA'
p2364
sS'530358343'
p2365
S' PREDICTED: Homo sapiens uncharacterized LOC101929558 (LOC101929558), ncRNA'
p2366
sS'578794801'
p2367
S' PREDICTED: Homo sapiens uncharacterized LOC101927741 (LOC101927741), transcript variant X1, ncRNA'
p2368
sS'578794800'
p2369
S' PREDICTED: Homo sapiens uncharacterized LOC101927741 (LOC101927741), transcript variant X2, ncRNA'
p2370
sS'578794803'
p2371
S' PREDICTED: Homo sapiens uncharacterized LOC102724650 (LOC102724650), transcript variant X1, ncRNA'
p2372
sS'578794802'
p2373
S' PREDICTED: Homo sapiens uncharacterized LOC729224 (LOC729224), misc_RNA'
p2374
sS'578794805'
p2375
S' PREDICTED: Homo sapiens uncharacterized LOC102724675 (LOC102724675), ncRNA'
p2376
sS'578794804'
p2377
S' PREDICTED: Homo sapiens uncharacterized LOC102724650 (LOC102724650), transcript variant X2, ncRNA'
p2378
sS'578794807'
p2379
S' PREDICTED: Homo sapiens uncharacterized LOC102724692 (LOC102724692), transcript variant X2, ncRNA'
p2380
sS'578794806'
p2381
S' PREDICTED: Homo sapiens uncharacterized LOC102724692 (LOC102724692), transcript variant X1, ncRNA'
p2382
sS'578794809'
p2383
S' PREDICTED: Homo sapiens uncharacterized LOC102724714 (LOC102724714), ncRNA'
p2384
sS'578794808'
p2385
S' PREDICTED: Homo sapiens uncharacterized LOC102724692 (LOC102724692), transcript variant X3, ncRNA'
p2386
sS'509155866'
p2387
S' Homo sapiens testis expressed 264 pseudogene (LOC100996349), non-coding RNA'
p2388
sS'530357795'
p2389
S' PREDICTED: Homo sapiens uncharacterized LOC101928067 (LOC101928067), transcript variant X1, ncRNA'
p2390
sS'530357796'
p2391
S' PREDICTED: Homo sapiens uncharacterized LOC101928067 (LOC101928067), transcript variant X2, ncRNA'
p2392
sS'530357822'
p2393
S' PREDICTED: Homo sapiens uncharacterized LOC101929633 (LOC101929633), transcript variant X2, ncRNA'
p2394
sS'530357820'
p2395
S' PREDICTED: Homo sapiens uncharacterized LOC101929615 (LOC101929615), ncRNA'
p2396
sS'530357793'
p2397
S' PREDICTED: Homo sapiens uncharacterized LOC101928185 (LOC101928185), ncRNA'
p2398
sS'578794715'
p2399
S' PREDICTED: Homo sapiens uncharacterized LOC102725405 (LOC102725405), transcript variant X3, ncRNA'
p2400
sS'578794714'
p2401
S' PREDICTED: Homo sapiens uncharacterized LOC102725405 (LOC102725405), transcript variant X2, ncRNA'
p2402
sS'578794717'
p2403
S' PREDICTED: Homo sapiens uncharacterized LOC102725405 (LOC102725405), transcript variant X5, ncRNA'
p2404
sS'578794716'
p2405
S' PREDICTED: Homo sapiens uncharacterized LOC102725405 (LOC102725405), transcript variant X4, ncRNA'
p2406
sS'578794711'
p2407
S' PREDICTED: Homo sapiens uncharacterized LOC102724774 (LOC102724774), ncRNA'
p2408
sS'578794710'
p2409
S' PREDICTED: Homo sapiens uncharacterized LOC102724744 (LOC102724744), ncRNA'
p2410
sS'578794713'
p2411
S' PREDICTED: Homo sapiens uncharacterized LOC102725405 (LOC102725405), transcript variant X1, ncRNA'
p2412
sS'578794712'
p2413
S' PREDICTED: Homo sapiens uncharacterized LOC102724819 (LOC102724819), ncRNA'
p2414
sS'578794719'
p2415
S' PREDICTED: Homo sapiens uncharacterized LOC102725405 (LOC102725405), transcript variant X7, ncRNA'
p2416
sS'578794718'
p2417
S' PREDICTED: Homo sapiens uncharacterized LOC102725405 (LOC102725405), transcript variant X6, ncRNA'
p2418
sS'530357952'
p2419
S' PREDICTED: Homo sapiens uncharacterized LOC101927416 (AC037193.1), transcript variant X1, ncRNA'
p2420
sS'530357954'
p2421
S' PREDICTED: Homo sapiens uncharacterized LOC100996542 (LOC100996542), ncRNA'
p2422
sS'530357959'
p2423
S' PREDICTED: Homo sapiens uncharacterized LOC101930259 (LOC101930259), ncRNA'
p2424
sS'530358166'
p2425
S' PREDICTED: Homo sapiens uncharacterized LOC101928430 (LOC101928430), ncRNA'
p2426
sS'530358167'
p2427
S' PREDICTED: Homo sapiens uncharacterized LOC101928405 (LOC101928405), ncRNA'
p2428
sS'530356970'
p2429
S' PREDICTED: Homo sapiens uncharacterized LOC100506775 (RP11-134P9.3), transcript variant X1, ncRNA'
p2430
sS'530358160'
p2431
S' PREDICTED: Homo sapiens uncharacterized LOC101928583 (LOC101928583), ncRNA'
p2432
sS'530356974'
p2433
S' PREDICTED: Homo sapiens uncharacterized LOC101929326 (LOC101929326), ncRNA'
p2434
sS'578794621'
p2435
S' PREDICTED: Homo sapiens uncharacterized LOC101927144 (LOC101927144), transcript variant X1, ncRNA'
p2436
sS'578794620'
p2437
S' PREDICTED: Homo sapiens uncharacterized LOC101927089 (LOC101927089), transcript variant X2, ncRNA'
p2438
sS'578794623'
p2439
S' PREDICTED: Homo sapiens uncharacterized LOC102724063 (LOC102724063), ncRNA'
p2440
sS'530356978'
p2441
S' PREDICTED: Homo sapiens uncharacterized LOC400800 (FLJ43585), misc_RNA'
p2442
sS'578794625'
p2443
S' PREDICTED: Homo sapiens uncharacterized LOC101927165 (LOC101927165), ncRNA'
p2444
sS'578794624'
p2445
S' PREDICTED: Homo sapiens uncharacterized LOC102724072 (LOC102724072), ncRNA'
p2446
sS'578794626'
p2447
S' PREDICTED: Homo sapiens uncharacterized LOC100129434 (AC007743.1), transcript variant X1, misc_RNA'
p2448
sS'530356999'
p2449
S' PREDICTED: Homo sapiens uncharacterized LOC101928628 (LOC101928628), ncRNA'
p2450
sS'530356993'
p2451
S' PREDICTED: Homo sapiens uncharacterized LOC101930532 (LOC101930532), ncRNA'
p2452
sS'530356995'
p2453
S' PREDICTED: Homo sapiens uncharacterized LOC101928727 (LOC101928727), ncRNA'
p2454
sS'530356996'
p2455
S' PREDICTED: Homo sapiens uncharacterized LOC101928696 (RP1-102G20.5), ncRNA'
p2456
sS'578794364'
p2457
S' PREDICTED: Homo sapiens uncharacterized LOC101927975 (LOC101927975), ncRNA'
p2458
sS'578794365'
p2459
S' PREDICTED: Homo sapiens uncharacterized LOC101927952 (LOC101927952), ncRNA'
p2460
sS'578794366'
p2461
S' PREDICTED: Homo sapiens uncharacterized LOC101927933 (LOC101927933), ncRNA'
p2462
sS'578794360'
p2463
S' PREDICTED: Homo sapiens uncharacterized LOC102723480 (LOC102723480), transcript variant X3, ncRNA'
p2464
sS'578794361'
p2465
S' PREDICTED: Homo sapiens uncharacterized LOC102723436 (LOC102723436), ncRNA'
p2466
sS'578794362'
p2467
S' PREDICTED: Homo sapiens uncharacterized LOC102723410 (LOC102723410), mRNA'
p2468
sS'578794368'
p2469
S' PREDICTED: Homo sapiens uncharacterized LOC101927871 (LOC101927871), transcript variant X2, ncRNA'
p2470
sS'578794369'
p2471
S' PREDICTED: Homo sapiens uncharacterized LOC101927871 (LOC101927871), transcript variant X3, ncRNA'
p2472
sS'578794562'
p2473
S' PREDICTED: Homo sapiens uncharacterized LOC102723717 (LOC102723717), ncRNA'
p2474
sS'578794563'
p2475
S' PREDICTED: Homo sapiens uncharacterized LOC102723730 (LOC102723730), ncRNA'
p2476
sS'530358018'
p2477
S' PREDICTED: Homo sapiens uncharacterized LOC101928015 (AC116035.1), transcript variant X1, ncRNA'
p2478
sS'530358019'
p2479
S' PREDICTED: Homo sapiens uncharacterized LOC101928015 (AC116035.1), transcript variant X2, ncRNA'
p2480
sS'578794566'
p2481
S' PREDICTED: Homo sapiens uncharacterized LOC100506014 (LOC100506014), transcript variant X3, ncRNA'
p2482
sS'578794564'
p2483
S' PREDICTED: Homo sapiens hepatitis A virus cellular receptor 1-like (LOC101927493), misc_RNA'
p2484
sS'578794565'
p2485
S' PREDICTED: Homo sapiens uncharacterized LOC100506014 (LOC100506014), transcript variant X2, ncRNA'
p2486
sS'578794568'
p2487
S' PREDICTED: Homo sapiens uncharacterized LOC102724141 (LOC102724141), mRNA'
p2488
sS'530358016'
p2489
S' PREDICTED: Homo sapiens uncharacterized LOC389102 (YPLR6490), misc_RNA'
p2490
sS'530358017'
p2491
S' PREDICTED: Homo sapiens uncharacterized LOC101928056 (LOC101928056), ncRNA'
p2492
sS'530357226'
p2493
S' PREDICTED: Homo sapiens uncharacterized LOC101927891 (RP11-76N22.2), transcript variant X1, ncRNA'
p2494
sS'530357227'
p2495
S' PREDICTED: Homo sapiens uncharacterized LOC101927891 (RP11-76N22.2), transcript variant X2, ncRNA'
p2496
sS'530357220'
p2497
S' PREDICTED: Homo sapiens uncharacterized LOC101928098 (LOC101928098), ncRNA'
p2498
sS'530357221'
p2499
S' PREDICTED: Homo sapiens uncharacterized LOC100505940 (LOC100505940), ncRNA'
p2500
sS'530357229'
p2501
S' PREDICTED: Homo sapiens uncharacterized LOC101927871 (LOC101927871), transcript variant X1, ncRNA'
p2502
sS'148229490'
p2503
S' Homo sapiens ubiquinol-cytochrome c reductase hinge protein-like (UQCRHL), mRNA'
p2504
sS'578794496'
p2505
S' PREDICTED: Homo sapiens uncharacterized LOC102724601 (LOC102724601), transcript variant X2, ncRNA'
p2506
sS'578794497'
p2507
S' PREDICTED: Homo sapiens uncharacterized LOC102724578 (LOC102724578), ncRNA'
p2508
sS'578794494'
p2509
S' PREDICTED: Homo sapiens uncharacterized LOC102724649 (LOC102724649), ncRNA'
p2510
sS'578794495'
p2511
S' PREDICTED: Homo sapiens uncharacterized LOC102724601 (LOC102724601), transcript variant X1, ncRNA'
p2512
sS'578794492'
p2513
S' PREDICTED: Homo sapiens uncharacterized LOC102724661 (LOC102724661), transcript variant X1, ncRNA'
p2514
sS'578795149'
p2515
S' PREDICTED: Homo sapiens uncharacterized LOC101927145 (LOC101927145), transcript variant X1, ncRNA'
p2516
sS'578795148'
p2517
S' PREDICTED: Homo sapiens uncharacterized LOC102724598 (LOC102724598), ncRNA'
p2518
sS'578795147'
p2519
S' PREDICTED: Homo sapiens uncharacterized LOC101928815 (LOC101928815), transcript variant X3, ncRNA'
p2520
sS'578795146'
p2521
S' PREDICTED: Homo sapiens uncharacterized LOC101928815 (LOC101928815), transcript variant X2, ncRNA'
p2522
sS'578795145'
p2523
S' PREDICTED: Homo sapiens uncharacterized LOC101928785 (LOC101928785), ncRNA'
p2524
sS'578795144'
p2525
S' PREDICTED: Homo sapiens uncharacterized LOC102724537 (LOC102724537), ncRNA'
p2526
sS'578795143'
p2527
S' PREDICTED: Homo sapiens uncharacterized LOC100506444 (RP11-317M11.1), transcript variant X2, ncRNA'
p2528
sS'578795142'
p2529
S' PREDICTED: Homo sapiens uncharacterized LOC100506444 (RP11-317M11.1), transcript variant X4, ncRNA'
p2530
sS'578795141'
p2531
S' PREDICTED: Homo sapiens uncharacterized LOC100506444 (RP11-317M11.1), transcript variant X3, ncRNA'
p2532
sS'578794499'
p2533
S' PREDICTED: Homo sapiens uncharacterized LOC101928673 (LOC101928673), ncRNA'
p2534
sS'288541338'
p2535
S' Homo sapiens FGFR1 oncogene partner 2 pseudogene (LOC100335030), non-coding RNA'
p2536
sS'559098517'
p2537
S' Homo sapiens uncharacterized LOC100506790 (LOC100506790), long non-coding RNA'
p2538
sS'559098516'
p2539
S' Homo sapiens uncharacterized LOC257396 (LOC257396), transcript variant 2, long non-coding RNA'
p2540
sS'578794388'
p2541
S' PREDICTED: Homo sapiens uncharacterized LOC101928977 (LOC101928977), transcript variant X1, ncRNA'
p2542
sS'578794389'
p2543
S' PREDICTED: Homo sapiens uncharacterized LOC101928977 (LOC101928977), transcript variant X2, ncRNA'
p2544
sS'387942433'
p2545
S' Homo sapiens golgin A2 pseudogene (LOC642423), non-coding RNA'
p2546
sS'578794382'
p2547
S' PREDICTED: Homo sapiens uncharacterized LOC101928476 (RP11-251P6.1), transcript variant X2, ncRNA'
p2548
sS'578794380'
p2549
S' PREDICTED: Homo sapiens uncharacterized LOC102725338 (LOC102725338), ncRNA'
p2550
sS'578794386'
p2551
S' PREDICTED: Homo sapiens uncharacterized LOC101928822 (RP5-1073O3.2), transcript variant X1, ncRNA'
p2552
sS'578794387'
p2553
S' PREDICTED: Homo sapiens uncharacterized LOC101928822 (RP5-1073O3.2), transcript variant X2, ncRNA'
p2554
sS'578794384'
p2555
S' PREDICTED: Homo sapiens uncharacterized LOC101928718 (LOC101928718), transcript variant X2, ncRNA'
p2556
sS'578794385'
p2557
S' PREDICTED: Homo sapiens uncharacterized LOC101930375 (LOC101930375), transcript variant X2, ncRNA'
p2558
sS'530357006'
p2559
S' PREDICTED: Homo sapiens HERV-V_19q13.41 provirus ancestral Env polyprotein 2-like (LOC101930574), partial mRNA'
p2560
sS'349585117'
p2561
S' Homo sapiens peptidylprolyl isomerase A (cyclophilin A) pseudogene (LOC729739), non-coding RNA'
p2562
sS'222136648'
p2563
S' Homo sapiens D-dopachrome tautomerase-like (LOC391322), mRNA'
p2564
sS'530357176'
p2565
S' PREDICTED: Homo sapiens uncharacterized LOC101927065 (LOC101927065), ncRNA'
p2566
sS'530357177'
p2567
S' PREDICTED: Homo sapiens uncharacterized LOC101927034 (RP11-24J23.2), transcript variant X1, ncRNA'
p2568
sS'530357835'
p2569
S' PREDICTED: Homo sapiens uncharacterized LOC101930299 (LOC101930299), ncRNA'
p2570
sS'578794968'
p2571
S' PREDICTED: Homo sapiens uncharacterized LOC101929278 (LOC101929278), ncRNA'
p2572
sS'578794969'
p2573
S' PREDICTED: Homo sapiens uncharacterized LOC101926886 (LOC101926886), ncRNA'
p2574
sS'578794966'
p2575
S' PREDICTED: Homo sapiens uncharacterized LOC101929298 (LOC101929298), transcript variant X2, ncRNA'
p2576
sS'578794967'
p2577
S' PREDICTED: Homo sapiens uncharacterized LOC101929298 (LOC101929298), transcript variant X1, ncRNA'
p2578
sS'578794964'
p2579
S' PREDICTED: Homo sapiens uncharacterized LOC102723364 (LOC102723364), ncRNA'
p2580
sS'578794965'
p2581
S' PREDICTED: Homo sapiens uncharacterized LOC101929320 (LOC101929320), ncRNA'
p2582
sS'578794962'
p2583
S' PREDICTED: Homo sapiens uncharacterized LOC102723326 (LOC102723326), ncRNA'
p2584
sS'578794963'
p2585
S' PREDICTED: Homo sapiens uncharacterized LOC101927439 (LOC101927439), ncRNA'
p2586
sS'578794960'
p2587
S' PREDICTED: Homo sapiens uncharacterized LOC728290 (LOC728290), transcript variant X2, ncRNA'
p2588
sS'578794961'
p2589
S' PREDICTED: Homo sapiens uncharacterized LOC728290 (LOC728290), transcript variant X4, ncRNA'
p2590
sS'530357832'
p2591
S' PREDICTED: Homo sapiens uncharacterized LOC100129455 (LOC100129455), misc_RNA'
p2592
sS'530358376'
p2593
S' PREDICTED: Homo sapiens uncharacterized LOC101927414 (LOC101927414), transcript variant X2, ncRNA'
p2594
sS'530358375'
p2595
S' PREDICTED: Homo sapiens uncharacterized LOC101927414 (LOC101927414), transcript variant X1, ncRNA'
p2596
sS'530358374'
p2597
S' PREDICTED: Homo sapiens uncharacterized LOC729307 (LOC729307), misc_RNA'
p2598
sS'530358379'
p2599
S' PREDICTED: Homo sapiens uncharacterized LOC101927490 (LOC101927490), ncRNA'
p2600
sS'530358378'
p2601
S' PREDICTED: Homo sapiens uncharacterized LOC101927451 (LOC101927451), transcript variant X2, ncRNA'
p2602
sS'578794812'
p2603
S' PREDICTED: Homo sapiens uncharacterized LOC101927960 (LOC101927960), transcript variant X2, ncRNA'
p2604
sS'578794813'
p2605
S' PREDICTED: Homo sapiens uncharacterized LOC101927960 (LOC101927960), transcript variant X5, ncRNA'
p2606
sS'578794810'
p2607
S' PREDICTED: Homo sapiens uncharacterized LOC101927960 (LOC101927960), transcript variant X3, ncRNA'
p2608
sS'578794811'
p2609
S' PREDICTED: Homo sapiens uncharacterized LOC101927960 (LOC101927960), transcript variant X4, ncRNA'
p2610
sS'578794816'
p2611
S' PREDICTED: Homo sapiens uncharacterized LOC101927991 (LOC101927991), transcript variant X3, ncRNA'
p2612
sS'530357566'
p2613
S' PREDICTED: Homo sapiens uncharacterized LOC101930516 (LOC101930516), ncRNA'
p2614
sS'578794814'
p2615
S' PREDICTED: Homo sapiens uncharacterized LOC101927991 (LOC101927991), transcript variant X1, ncRNA'
p2616
sS'578794815'
p2617
S' PREDICTED: Homo sapiens uncharacterized LOC101927991 (LOC101927991), transcript variant X2, ncRNA'
p2618
sS'578794818'
p2619
S' PREDICTED: Homo sapiens uncharacterized LOC102725485 (LOC102725485), ncRNA'
p2620
sS'578794819'
p2621
S' PREDICTED: Homo sapiens uncharacterized LOC102725489 (LOC102725489), ncRNA'
p2622
sS'530357810'
p2623
S' PREDICTED: Homo sapiens uncharacterized LOC101929356 (LOC101929356), ncRNA'
p2624
sS'530357816'
p2625
S' PREDICTED: Homo sapiens uncharacterized LOC101929512 (LOC101929512), ncRNA'
p2626
sS'212549757'
p2627
S' Homo sapiens uncharacterized LOC729609 (LOC729609), long non-coding RNA'
p2628
sS'224493888'
p2629
S' Homo sapiens uncharacterized DKFZp779M0652 (DKFZp779M0652), long non-coding RNA'
p2630
sS'374671831'
p2631
S' Homo sapiens uncharacterized LOC100130744 (LOC100130744), long non-coding RNA'
p2632
sS'578795056'
p2633
S' PREDICTED: Homo sapiens uncharacterized LOC101927832 (RP11-372E1.6), transcript variant X3, ncRNA'
p2634
sS'578794706'
p2635
S' PREDICTED: Homo sapiens uncharacterized LOC101927070 (LOC101927070), transcript variant X3, ncRNA'
p2636
sS'578794707'
p2637
S' PREDICTED: Homo sapiens uncharacterized LOC101927070 (LOC101927070), transcript variant X5, ncRNA'
p2638
sS'578794704'
p2639
S' PREDICTED: Homo sapiens uncharacterized LOC101927070 (LOC101927070), transcript variant X1, ncRNA'
p2640
sS'578794705'
p2641
S' PREDICTED: Homo sapiens uncharacterized LOC101927070 (LOC101927070), transcript variant X2, ncRNA'
p2642
sS'578795051'
p2643
S' PREDICTED: Homo sapiens uncharacterized LOC102724145 (LOC102724145), ncRNA'
p2644
sS'578794703'
p2645
S' PREDICTED: Homo sapiens uncharacterized LOC101927070 (LOC101927070), transcript variant X4, ncRNA'
p2646
sS'578794700'
p2647
S' PREDICTED: Homo sapiens uncharacterized LOC101930523 (LOC101930523), transcript variant X2, ncRNA'
p2648
sS'578794701'
p2649
S' PREDICTED: Homo sapiens uncharacterized LOC101927271 (LOC101927271), ncRNA'
p2650
sS'578794708'
p2651
S' PREDICTED: Homo sapiens uncharacterized LOC102725293 (LOC102725293), mRNA'
p2652
sS'530358180'
p2653
S' PREDICTED: Homo sapiens uncharacterized LOC101928085 (LOC101928085), transcript variant X1, ncRNA'
p2654
sS'530357965'
p2655
S' PREDICTED: Homo sapiens uncharacterized LOC101929433 (LOC101929433), ncRNA'
p2656
sS'578795050'
p2657
S' PREDICTED: Homo sapiens uncharacterized LOC101927942 (LOC101927942), transcript variant X2, ncRNA'
p2658
sS'299829266'
p2659
S' Homo sapiens ribonuclease, RNase A family, 2 (liver, eosinophil-derived neurotoxin) pseudogene (ECRP), non-coding RNA'
p2660
sS'530358159'
p2661
S' PREDICTED: Homo sapiens uncharacterized LOC101928615 (LOC101928615), ncRNA'
p2662
sS'530358150'
p2663
S' PREDICTED: Homo sapiens uncharacterized LOC101928856 (LOC101928856), transcript variant X1, ncRNA'
p2664
sS'530358156'
p2665
S' PREDICTED: Homo sapiens uncharacterized LOC101928711 (LOC101928711), ncRNA'
p2666
sS'530358399'
p2667
S' PREDICTED: Homo sapiens uncharacterized LOC101928028 (LOC101928028), ncRNA'
p2668
sS'530358398'
p2669
S' PREDICTED: Homo sapiens uncharacterized LOC101928007 (LOC101928007), ncRNA'
p2670
sS'578794638'
p2671
S' PREDICTED: Homo sapiens uncharacterized LOC101927661 (LOC101927661), transcript variant X2, ncRNA'
p2672
sS'578794639'
p2673
S' PREDICTED: Homo sapiens uncharacterized LOC102724373 (LOC102724373), ncRNA'
p2674
sS'578794632'
p2675
S' PREDICTED: Homo sapiens uncharacterized LOC100507006 (AC074289.1), transcript variant X2, ncRNA'
p2676
sS'578794633'
p2677
S' PREDICTED: Homo sapiens uncharacterized LOC100507006 (AC074289.1), transcript variant X3, ncRNA'
p2678
sS'578794630'
p2679
S' PREDICTED: Homo sapiens uncharacterized LOC102724155 (LOC102724155), ncRNA'
p2680
sS'578794631'
p2681
S' PREDICTED: Homo sapiens uncharacterized LOC100507006 (AC074289.1), transcript variant X1, ncRNA'
p2682
sS'530358394'
p2683
S' PREDICTED: Homo sapiens uncharacterized LOC729870 (LOC729870), misc_RNA'
p2684
sS'530358397'
p2685
S' PREDICTED: Homo sapiens uncharacterized LOC100505784 (LOC100505784), ncRNA'
p2686
sS'578794635'
p2687
S' PREDICTED: Homo sapiens uncharacterized LOC102724233 (LOC102724233), ncRNA'
p2688
sS'530357589'
p2689
S' PREDICTED: Homo sapiens uncharacterized LOC101929510 (LOC101929510), ncRNA'
p2690
sS'530357580'
p2691
S' PREDICTED: Homo sapiens uncharacterized LOC101927466 (LOC101927466), ncRNA'
p2692
sS'530357583'
p2693
S' PREDICTED: Homo sapiens uncharacterized LOC101927534 (LOC101927534), ncRNA'
p2694
sS'530357584'
p2695
S' PREDICTED: Homo sapiens uncharacterized LOC101927578 (LOC101927578), ncRNA'
p2696
sS'530356988'
p2697
S' PREDICTED: Homo sapiens uncharacterized LOC646976 (LOC646976), misc_RNA'
p2698
sS'530356989'
p2699
S' PREDICTED: Homo sapiens uncharacterized LOC101928866 (LOC101928866), ncRNA'
p2700
sS'310114606'
p2701
S' PREDICTED: Homo sapiens uncharacterized LOC100506827 (LOC100506827), ncRNA'
p2702
sS'530356983'
p2703
S' PREDICTED: Homo sapiens uncharacterized LOC101929069 (LOC101929069), ncRNA'
p2704
sS'530356987'
p2705
S' PREDICTED: Homo sapiens uncharacterized LOC101928933 (LOC101928933), ncRNA'
p2706
sS'578794557'
p2707
S' PREDICTED: Homo sapiens uncharacterized LOC102724435 (LOC102724435), ncRNA'
p2708
sS'578794556'
p2709
S' PREDICTED: Homo sapiens uncharacterized LOC102724425 (LOC102724425), ncRNA'
p2710
sS'578794555'
p2711
S' PREDICTED: Homo sapiens uncharacterized LOC102724382 (LOC102724382), ncRNA'
p2712
sS'578794554'
p2713
S' PREDICTED: Homo sapiens uncharacterized LOC102724256 (LOC102724256), ncRNA'
p2714
sS'578794553'
p2715
S' PREDICTED: Homo sapiens uncharacterized LOC440742 (LOC440742), misc_RNA'
p2716
sS'578794552'
p2717
S' PREDICTED: Homo sapiens uncharacterized LOC100506929 (LOC100506929), transcript variant X4, ncRNA'
p2718
sS'578794551'
p2719
S' PREDICTED: Homo sapiens uncharacterized LOC102724174 (LOC102724174), ncRNA'
p2720
sS'578794550'
p2721
S' PREDICTED: Homo sapiens uncharacterized LOC102724100 (LOC102724100), ncRNA'
p2722
sS'530358024'
p2723
S' PREDICTED: Homo sapiens uncharacterized LOC101927874 (LOC101927874), ncRNA'
p2724
sS'530358022'
p2725
S' PREDICTED: Homo sapiens putative uncharacterized protein C3orf53-like (LOC100652807), mRNA'
p2726
sS'578794559'
p2727
S' PREDICTED: Homo sapiens formin-like protein 16-like (LOC101060391), mRNA'
p2728
sS'578794558'
p2729
S' PREDICTED: Homo sapiens uncharacterized LOC102724446 (LOC102724446), ncRNA'
p2730
sS'153792508'
p2731
S' Homo sapiens mediator complex subunit 27 pseudogene (CRSP8P), non-coding RNA'
p2732
sS'578795150'
p2733
S' PREDICTED: Homo sapiens uncharacterized LOC101927145 (LOC101927145), transcript variant X3, ncRNA'
p2734
sS'578795151'
p2735
S' PREDICTED: Homo sapiens uncharacterized LOC101927145 (LOC101927145), transcript variant X2, ncRNA'
p2736
sS'578795152'
p2737
S' PREDICTED: Homo sapiens uncharacterized LOC101927186 (RP11-84A1.3), ncRNA'
p2738
sS'578795153'
p2739
S' PREDICTED: Homo sapiens uncharacterized LOC102724780 (LOC102724780), ncRNA'
p2740
sS'578795154'
p2741
S' PREDICTED: Homo sapiens uncharacterized LOC102724794 (LOC102724794), ncRNA'
p2742
sS'578795155'
p2743
S' PREDICTED: Homo sapiens uncharacterized LOC102724821 (LOC102724821), ncRNA'
p2744
sS'578795156'
p2745
S' PREDICTED: Homo sapiens uncharacterized LOC102724832 (LOC102724832), transcript variant X1, ncRNA'
p2746
sS'578795157'
p2747
S' PREDICTED: Homo sapiens uncharacterized LOC102724832 (LOC102724832), transcript variant X2, ncRNA'
p2748
sS'578795158'
p2749
S' PREDICTED: Homo sapiens uncharacterized LOC101928702 (LOC101928702), ncRNA'
p2750
sS'578795159'
p2751
S' PREDICTED: Homo sapiens uncharacterized LOC102724916 (LOC102724916), ncRNA'
p2752
s.