(dp0
S'XR_425045'
p1
S' PREDICTED: Homo sapiens uncharacterized LOC102724387 (LOC102724387), transcript variant X2, ncRNA'
p2
sS'XR_425044'
p3
S' PREDICTED: Homo sapiens uncharacterized LOC102724387 (LOC102724387), transcript variant X1, ncRNA'
p4
sS'XR_425047'
p5
S' PREDICTED: Homo sapiens uncharacterized LOC102724329 (LOC102724329), transcript variant X1, ncRNA'
p6
sS'XR_425046'
p7
S' PREDICTED: Homo sapiens uncharacterized LOC102724358 (LOC102724358), ncRNA'
p8
sS'XR_425041'
p9
S' PREDICTED: Homo sapiens uncharacterized LOC102724466 (LOC102724466), ncRNA'
p10
sS'XR_425040'
p11
S' PREDICTED: Homo sapiens uncharacterized LOC101928177 (LOC101928177), transcript variant X2, ncRNA'
p12
sS'XR_425043'
p13
S' PREDICTED: Homo sapiens uncharacterized LOC102725304 (LOC102725304), ncRNA'
p14
sS'XR_425042'
p15
S' PREDICTED: Homo sapiens uncharacterized LOC101928512 (LOC101928512), transcript variant X4, ncRNA'
p16
sS'XR_425049'
p17
S' PREDICTED: Homo sapiens uncharacterized LOC102724329 (LOC102724329), transcript variant X3, ncRNA'
p18
sS'XR_425048'
p19
S' PREDICTED: Homo sapiens uncharacterized LOC102724329 (LOC102724329), transcript variant X2, ncRNA'
p20
sS'XR_249104'
p21
S' PREDICTED: Homo sapiens uncharacterized LOC101929386 (LOC101929386), transcript variant X2, ncRNA'
p22
sS'XR_249105'
p23
S' PREDICTED: Homo sapiens uncharacterized LOC101930384 (LOC101930384), ncRNA'
p24
sS'XR_249106'
p25
S' PREDICTED: Homo sapiens uncharacterized LOC285043 (LOC285043), misc_RNA'
p26
sS'XR_249107'
p27
S' PREDICTED: Homo sapiens uncharacterized LOC101929456 (LOC101929456), ncRNA'
p28
sS'XR_249100'
p29
S' PREDICTED: Homo sapiens uncharacterized LOC101929230 (LOC101929230), ncRNA'
p30
sS'XR_249101'
p31
S' PREDICTED: Homo sapiens uncharacterized LOC101929251 (LOC101929251), transcript variant X1, ncRNA'
p32
sS'XR_249102'
p33
S' PREDICTED: Homo sapiens uncharacterized LOC101929272 (LOC101929272), transcript variant X1, ncRNA'
p34
sS'XR_249103'
p35
S' PREDICTED: Homo sapiens uncharacterized LOC101929386 (LOC101929386), transcript variant X1, ncRNA'
p36
sS'XM_006710082'
p37
S' PREDICTED: Homo sapiens uncharacterized LOC102723367 (LOC102723367), mRNA'
p38
sS'XM_006710080'
p39
S' PREDICTED: Homo sapiens myomegalin-like (LOC100996724), transcript variant X7, mRNA'
p40
sS'XM_006710081'
p41
S' PREDICTED: Homo sapiens myomegalin-like (LOC100996724), transcript variant X8, mRNA'
p42
sS'XR_249108'
p43
S' PREDICTED: Homo sapiens uncharacterized LOC101929477 (LOC101929477), ncRNA'
p44
sS'XR_249109'
p45
S' PREDICTED: Homo sapiens uncharacterized LOC101929500 (LOC101929500), ncRNA'
p46
sS'XR_112646'
p47
S' PREDICTED: Homo sapiens uncharacterized LOC100506253 (LOC100506253), ncRNA'
p48
sS'XR_248670'
p49
S' PREDICTED: Homo sapiens uncharacterized LOC101928628 (LOC101928628), ncRNA'
p50
sS'XR_248673'
p51
S' PREDICTED: Homo sapiens uncharacterized LOC101928596 (LOC101928596), ncRNA'
p52
sS'NR_024456'
p53
S' Homo sapiens uncharacterized LOC100190986 (LOC100190986), long non-coding RNA'
p54
sS'NR_033267'
p55
S' Homo sapiens FGFR1 oncogene partner 2 pseudogene (LOC100335030), non-coding RNA'
p56
sS'XR_112464'
p57
S' PREDICTED: Homo sapiens uncharacterized LOC100506319 (LOC100506319), transcript variant 1, ncRNA'
p58
sS'XR_112468'
p59
S' PREDICTED: Homo sapiens uncharacterized LOC389102 (YPLR6490), misc_RNA'
p60
sS'XR_249078'
p61
S' PREDICTED: Homo sapiens uncharacterized LOC101929510 (LOC101929510), ncRNA'
p62
sS'XR_249079'
p63
S' PREDICTED: Homo sapiens uncharacterized LOC101929531 (LOC101929531), ncRNA'
p64
sS'NR_109880'
p65
S' Homo sapiens uncharacterized LOC101929625 (LOC101929625), long non-coding RNA'
p66
sS'XR_249072'
p67
S' PREDICTED: Homo sapiens uncharacterized LOC101927466 (LOC101927466), ncRNA'
p68
sS'XR_249073'
p69
S' PREDICTED: Homo sapiens uncharacterized LOC101927534 (LOC101927534), ncRNA'
p70
sS'XR_249074'
p71
S' PREDICTED: Homo sapiens uncharacterized LOC101927578 (LOC101927578), ncRNA'
p72
sS'XR_248709'
p73
S' PREDICTED: Homo sapiens uncharacterized LOC101927185 (LOC101927185), ncRNA'
p74
sS'XR_249651'
p75
S' PREDICTED: Homo sapiens uncharacterized LOC101927052 (LOC101927052), transcript variant X1, ncRNA'
p76
sS'XR_249654'
p77
S' PREDICTED: Homo sapiens uncharacterized LOC101927109 (RP11-318I4.1), ncRNA'
p78
sS'XR_249655'
p79
S' PREDICTED: Homo sapiens uncharacterized LOC101927163 (LOC101927163), ncRNA'
p80
sS'XR_249656'
p81
S' PREDICTED: Homo sapiens uncharacterized LOC101927184 (RP11-420A23.1), transcript variant X1, ncRNA'
p82
sS'XR_248701'
p83
S' PREDICTED: Homo sapiens uncharacterized LOC101929385 (LOC101929385), transcript variant X1, ncRNA'
p84
sS'XR_248700'
p85
S' PREDICTED: Homo sapiens uncharacterized LOC101929476 (LOC101929476), ncRNA'
p86
sS'XR_248703'
p87
S' PREDICTED: Homo sapiens uncharacterized LOC101929385 (LOC101929385), transcript variant X3, ncRNA'
p88
sS'XR_248705'
p89
S' PREDICTED: Homo sapiens uncharacterized LOC101929363 (LOC101929363), ncRNA'
p90
sS'XR_248706'
p91
S' PREDICTED: Homo sapiens uncharacterized LOC101927247 (LOC101927247), transcript variant X1, ncRNA'
p92
sS'NR_034062'
p93
S' Homo sapiens hCG1645011-like (LOC100131635), long non-coding RNA'
p94
sS'XR_249257'
p95
S' PREDICTED: Homo sapiens uncharacterized LOC101927252 (LOC101927252), transcript variant X1, ncRNA'
p96
sS'XR_249252'
p97
S' PREDICTED: Homo sapiens uncharacterized LOC101927073 (LOC101927073), ncRNA'
p98
sS'XR_249253'
p99
S' PREDICTED: Homo sapiens uncharacterized LOC101927156 (AC104820.2), ncRNA'
p100
sS'XM_003960925'
p101
S' PREDICTED: Homo sapiens protein FAM218A-like (LOC101059914), mRNA'
p102
sS'NM_031454'
p103
S' Homo sapiens selenoprotein O (SELO), mRNA'
p104
sS'NM_001257362'
p105
S' Homo sapiens POTE ankyrin domain family member D-like (LOC100288966), mRNA'
p106
sS'XR_249491'
p107
S' PREDICTED: Homo sapiens uncharacterized LOC101928856 (LOC101928856), transcript variant X1, ncRNA'
p108
sS'XR_249497'
p109
S' PREDICTED: Homo sapiens uncharacterized LOC101928711 (LOC101928711), ncRNA'
p110
sS'XR_249499'
p111
S' PREDICTED: Homo sapiens uncharacterized LOC101928615 (LOC101928615), ncRNA'
p112
sS'XR_248850'
p113
S' PREDICTED: Homo sapiens uncharacterized LOC101928560 (LOC101928560), ncRNA'
p114
sS'XR_248853'
p115
S' PREDICTED: Homo sapiens uncharacterized LOC101930362 (LOC101930362), ncRNA'
p116
sS'XR_248855'
p117
S' PREDICTED: Homo sapiens uncharacterized LOC101928718 (LOC101928718), transcript variant X2, ncRNA'
p118
sS'XR_248857'
p119
S' PREDICTED: Homo sapiens uncharacterized LOC101930375 (LOC101930375), transcript variant X1, ncRNA'
p120
sS'XR_248856'
p121
S' PREDICTED: Homo sapiens uncharacterized LOC101928754 (LOC101928754), ncRNA'
p122
sS'XR_248859'
p123
S' PREDICTED: Homo sapiens uncharacterized LOC101928846 (RP5-1073O3.7), transcript variant X1, ncRNA'
p124
sS'NR_073512'
p125
S' Homo sapiens uncharacterized LOC100506403 (LOC100506403), long non-coding RNA'
p126
sS'XR_159349'
p127
S' PREDICTED: Homo sapiens uncharacterized LOC100996630 (LOC100996630), ncRNA'
p128
sS'XR_159346'
p129
S' PREDICTED: Homo sapiens uncharacterized LOC100996583 (RP3-395M20.9), ncRNA'
p130
sS'XR_159343'
p131
S' PREDICTED: Homo sapiens uncharacterized LOC400756 (RP11-230B22.1), misc_RNA'
p132
sS'NR_033244'
p133
S' Homo sapiens glycine cleavage system protein H (aminomethyl carrier) pseudogene (LOC729080), non-coding RNA'
p134
sS'NR_033245'
p135
S' Homo sapiens glycine cleavage system protein H (aminomethyl carrier) pseudogene (LOC641746), non-coding RNA'
p136
sS'NR_027761'
p137
S' Homo sapiens A20-binding inhibitor of NF-kappaB activation 2 pseudogene (LOC100132831), non-coding RNA'
p138
sS'NR_037182'
p139
S' Homo sapiens phosphodiesterase 4D interacting protein pseudogene (LOC653513), non-coding RNA'
p140
sS'XR_425548'
p141
S' PREDICTED: Homo sapiens uncharacterized LOC102723825 (LOC102723825), ncRNA'
p142
sS'XR_425549'
p143
S' PREDICTED: Homo sapiens uncharacterized LOC101930137 (LOC101930137), ncRNA'
p144
sS'XR_425540'
p145
S' PREDICTED: Homo sapiens uncharacterized LOC102723537 (LOC102723537), transcript variant X1, ncRNA'
p146
sS'XR_425541'
p147
S' PREDICTED: Homo sapiens uncharacterized LOC102723537 (LOC102723537), transcript variant X2, ncRNA'
p148
sS'XR_425542'
p149
S' PREDICTED: Homo sapiens uncharacterized LOC102725368 (LOC102725368), transcript variant X1, ncRNA'
p150
sS'XR_425543'
p151
S' PREDICTED: Homo sapiens uncharacterized LOC102725368 (LOC102725368), transcript variant X2, ncRNA'
p152
sS'XR_425544'
p153
S' PREDICTED: Homo sapiens uncharacterized LOC102725368 (LOC102725368), transcript variant X3, ncRNA'
p154
sS'XR_425545'
p155
S' PREDICTED: Homo sapiens uncharacterized LOC102725310 (LOC102725310), ncRNA'
p156
sS'XR_425546'
p157
S' PREDICTED: Homo sapiens dnaJ homolog subfamily B member 3-like (LOC101927831), misc_RNA'
p158
sS'XR_425547'
p159
S' PREDICTED: Homo sapiens uncharacterized LOC101927896 (LOC101927896), ncRNA'
p160
sS'XR_425610'
p161
S' PREDICTED: Homo sapiens uncharacterized LOC102723326 (LOC102723326), ncRNA'
p162
sS'XR_425611'
p163
S' PREDICTED: Homo sapiens uncharacterized LOC101927439 (LOC101927439), ncRNA'
p164
sS'XR_425612'
p165
S' PREDICTED: Homo sapiens uncharacterized LOC102723364 (LOC102723364), ncRNA'
p166
sS'XR_425613'
p167
S' PREDICTED: Homo sapiens uncharacterized LOC101929298 (LOC101929298), transcript variant X2, ncRNA'
p168
sS'XR_425614'
p169
S' PREDICTED: Homo sapiens uncharacterized LOC102723430 (LOC102723430), ncRNA'
p170
sS'XR_425615'
p171
S' PREDICTED: Homo sapiens uncharacterized LOC102725349 (LOC102725349), ncRNA'
p172
sS'XR_425616'
p173
S' PREDICTED: Homo sapiens uncharacterized LOC101929534 (LOC101929534), transcript variant X2, ncRNA'
p174
sS'XR_425617'
p175
S' PREDICTED: Homo sapiens uncharacterized LOC101929514 (LOC101929514), transcript variant X2, ncRNA'
p176
sS'XR_425618'
p177
S' PREDICTED: Homo sapiens uncharacterized LOC102724876 (LOC102724876), ncRNA'
p178
sS'XR_425619'
p179
S' PREDICTED: Homo sapiens uncharacterized LOC102724841 (LOC102724841), ncRNA'
p180
sS'XR_111974'
p181
S' PREDICTED: Homo sapiens uncharacterized LOC100506775 (RP11-134P9.3), transcript variant X1, ncRNA'
p182
sS'NM_001207043'
p183
S' Homo sapiens histocompatibility antigen-related (LOC554223), mRNA'
p184
sS'XR_425728'
p185
S' PREDICTED: Homo sapiens uncharacterized LOC101927133 (LOC101927133), transcript variant X2, ncRNA'
p186
sS'XR_425729'
p187
S' PREDICTED: Homo sapiens uncharacterized LOC101927133 (LOC101927133), transcript variant X3, ncRNA'
p188
sS'XR_425724'
p189
S' PREDICTED: Homo sapiens uncharacterized LOC101928721 (LOC101928721), transcript variant X2, ncRNA'
p190
sS'XR_425725'
p191
S' PREDICTED: Homo sapiens uncharacterized LOC101928721 (LOC101928721), transcript variant X3, ncRNA'
p192
sS'XR_425726'
p193
S' PREDICTED: Homo sapiens uncharacterized LOC102723415 (LOC102723415), ncRNA'
p194
sS'XR_425727'
p195
S' PREDICTED: Homo sapiens uncharacterized LOC102723497 (LOC102723497), ncRNA'
p196
sS'XR_425722'
p197
S' PREDICTED: Homo sapiens uncharacterized LOC102723846 (LOC102723846), ncRNA'
p198
sS'XR_425723'
p199
S' PREDICTED: Homo sapiens uncharacterized locus MGC42157 (MGC42157), transcript variant X2, misc_RNA'
p200
sS'NR_102752'
p201
S' Homo sapiens uncharacterized LOC100506639 (LOC100506639), long non-coding RNA'
p202
sS'XR_112078'
p203
S' PREDICTED: Homo sapiens uncharacterized LOC284600 (LOC284600), misc_RNA'
p204
sS'NR_026913'
p205
S' Homo sapiens uncharacterized LOC100133669 (LOC100133669), long non-coding RNA'
p206
sS'XR_425056'
p207
S' PREDICTED: Homo sapiens uncharacterized LOC101929305 (LOC101929305), ncRNA'
p208
sS'XR_425057'
p209
S' PREDICTED: Homo sapiens uncharacterized LOC102725514 (LOC102725514), ncRNA'
p210
sS'XR_425054'
p211
S' PREDICTED: Homo sapiens uncharacterized LOC102723494 (LOC102723494), ncRNA'
p212
sS'XR_425055'
p213
S' PREDICTED: Homo sapiens uncharacterized LOC102723465 (LOC102723465), ncRNA'
p214
sS'XR_425052'
p215
S' PREDICTED: Homo sapiens uncharacterized LOC102723529 (LOC102723529), ncRNA'
p216
sS'XR_425053'
p217
S' PREDICTED: Homo sapiens uncharacterized LOC100506775 (RP11-134P9.3), transcript variant X2, ncRNA'
p218
sS'XR_425050'
p219
S' PREDICTED: Homo sapiens uncharacterized LOC101929459 (LOC101929459), transcript variant X2, ncRNA'
p220
sS'XR_425051'
p221
S' PREDICTED: Homo sapiens uncharacterized LOC102723543 (LOC102723543), ncRNA'
p222
sS'XR_425058'
p223
S' PREDICTED: Homo sapiens uncharacterized LOC102725521 (LOC102725521), ncRNA'
p224
sS'XR_425059'
p225
S' PREDICTED: Homo sapiens uncharacterized LOC102723336 (LOC102723336), transcript variant X1, ncRNA'
p226
sS'XR_112671'
p227
S' PREDICTED: Homo sapiens uncharacterized LOC100507487 (LOC100507487), transcript variant X1, ncRNA'
p228
sS'XR_248666'
p229
S' PREDICTED: Homo sapiens uncharacterized LOC101928727 (LOC101928727), ncRNA'
p230
sS'XR_248667'
p231
S' PREDICTED: Homo sapiens uncharacterized LOC101928696 (RP1-102G20.5), ncRNA'
p232
sS'XR_248664'
p233
S' PREDICTED: Homo sapiens uncharacterized LOC101930532 (LOC101930532), ncRNA'
p234
sS'NR_024443'
p235
S' Homo sapiens uncharacterized LOC100133920 (LOC100133920), long non-coding RNA'
p236
sS'NR_024444'
p237
S' Homo sapiens uncharacterized LOC100133985 (LOC100133985), long non-coding RNA'
p238
sS'XR_248660'
p239
S' PREDICTED: Homo sapiens uncharacterized LOC101928866 (LOC101928866), ncRNA'
p240
sS'NR_024447'
p241
S' Homo sapiens uncharacterized LOC100128288 (LOC100128288), long non-coding RNA'
p242
sS'XR_112452'
p243
S' PREDICTED: Homo sapiens uncharacterized FLJ45964 (FLJ45964), misc_RNA'
p244
sS'XR_112451'
p245
S' PREDICTED: Homo sapiens uncharacterized LOC93463 (AC105760.3), misc_RNA'
p246
sS'XR_248668'
p247
S' PREDICTED: Homo sapiens uncharacterized LOC101928673 (LOC101928673), ncRNA'
p248
sS'XR_249394'
p249
S' PREDICTED: Homo sapiens uncharacterized LOC101927995 (LOC101927995), transcript variant X1, ncRNA'
p250
sS'XR_249396'
p251
S' PREDICTED: Homo sapiens uncharacterized LOC101927874 (LOC101927874), ncRNA'
p252
sS'XR_249391'
p253
S' PREDICTED: Homo sapiens uncharacterized LOC101928056 (LOC101928056), ncRNA'
p254
sS'XR_249390'
p255
S' PREDICTED: Homo sapiens uncharacterized LOC101928114 (LOC101928114), ncRNA'
p256
sS'XR_249393'
p257
S' PREDICTED: Homo sapiens uncharacterized LOC101928015 (AC116035.1), transcript variant X2, ncRNA'
p258
sS'XR_249392'
p259
S' PREDICTED: Homo sapiens uncharacterized LOC101928015 (AC116035.1), transcript variant X1, ncRNA'
p260
sS'NR_024594'
p261
S' Homo sapiens uncharacterized LOC100131496 (LOC100131496), long non-coding RNA'
p262
sS'XR_248718'
p263
S' PREDICTED: Homo sapiens uncharacterized LOC101927401 (LOC101927401), transcript variant X1, ncRNA'
p264
sS'XR_249626'
p265
S' PREDICTED: Homo sapiens uncharacterized LOC101929250 (LOC101929250), ncRNA'
p266
sS'XR_249621'
p267
S' PREDICTED: Homo sapiens uncharacterized LOC101929090 (LOC101929090), ncRNA'
p268
sS'XR_249623'
p269
S' PREDICTED: Homo sapiens uncharacterized LOC101929134 (LOC101929134), ncRNA'
p270
sS'XR_249084'
p271
S' PREDICTED: Homo sapiens uncharacterized LOC100996549 (LOC100996549), ncRNA'
p272
sS'XR_248712'
p273
S' PREDICTED: Homo sapiens uncharacterized LOC101930657 (LOC101930657), ncRNA'
p274
sS'XR_112523'
p275
S' PREDICTED: Homo sapiens uncharacterized LOC151760 (LOC151760), misc_RNA'
p276
sS'XR_425801'
p277
S' PREDICTED: Homo sapiens uncharacterized LOC102723331 (LOC102723331), ncRNA'
p278
sS'NR_045375'
p279
S' Homo sapiens uncharacterized LOC100506124 (LOC100506124), long non-coding RNA'
p280
sS'XR_425802'
p281
S' PREDICTED: Homo sapiens uncharacterized LOC101928172 (LOC101928172), ncRNA'
p282
sS'XR_249538'
p283
S' PREDICTED: Homo sapiens uncharacterized LOC100507210 (LOC100507210), transcript variant X2, ncRNA'
p284
sS'XR_249537'
p285
S' PREDICTED: Homo sapiens uncharacterized LOC101927568 (LOC101927568), transcript variant X1, ncRNA'
p286
sS'XR_425663'
p287
S' PREDICTED: Homo sapiens uncharacterized LOC101928236 (LOC101928236), transcript variant X3, ncRNA'
p288
sS'XR_248843'
p289
S' PREDICTED: Homo sapiens uncharacterized LOC101927656 (LOC101927656), transcript variant X1, ncRNA'
p290
sS'XR_248840'
p291
S' PREDICTED: Homo sapiens uncharacterized LOC101927773 (LOC101927773), transcript variant X1, ncRNA'
p292
sS'XR_248841'
p293
S' PREDICTED: Homo sapiens uncharacterized LOC101927773 (LOC101927773), transcript variant X2, ncRNA'
p294
sS'XR_248848'
p295
S' PREDICTED: Homo sapiens uncharacterized LOC101928476 (RP11-251P6.1), transcript variant X2, ncRNA'
p296
sS'XR_425153'
p297
S' PREDICTED: Homo sapiens uncharacterized LOC101927342 (RP11-550H2.1), transcript variant X1, ncRNA'
p298
sS'XR_425620'
p299
S' PREDICTED: Homo sapiens uncharacterized LOC102723696 (LOC102723696), transcript variant X1, ncRNA'
p300
sS'XR_425151'
p301
S' PREDICTED: Homo sapiens uncharacterized LOC102723990 (LOC102723990), ncRNA'
p302
sS'XR_425625'
p303
S' PREDICTED: Homo sapiens uncharacterized LOC101927028 (LOC101927028), transcript variant X3, ncRNA'
p304
sS'XR_425624'
p305
S' PREDICTED: Homo sapiens uncharacterized LOC102723666 (LOC102723666), ncRNA'
p306
sS'XR_425627'
p307
S' PREDICTED: Homo sapiens uncharacterized LOC101927028 (LOC101927028), transcript variant X5, ncRNA'
p308
sS'XR_425626'
p309
S' PREDICTED: Homo sapiens uncharacterized LOC101927028 (LOC101927028), transcript variant X4, ncRNA'
p310
sS'XR_425441'
p311
S' PREDICTED: Homo sapiens uncharacterized LOC101927271 (LOC101927271), ncRNA'
p312
sS'XR_425440'
p313
S' PREDICTED: Homo sapiens uncharacterized LOC101930523 (LOC101930523), transcript variant X2, ncRNA'
p314
sS'XR_425443'
p315
S' PREDICTED: Homo sapiens uncharacterized LOC101927070 (LOC101927070), transcript variant X4, ncRNA'
p316
sS'XR_425442'
p317
S' PREDICTED: Homo sapiens uncharacterized LOC101927110 (LOC101927110), transcript variant X3, ncRNA'
p318
sS'XR_425445'
p319
S' PREDICTED: Homo sapiens uncharacterized LOC102724744 (LOC102724744), ncRNA'
p320
sS'XR_425444'
p321
S' PREDICTED: Homo sapiens uncharacterized LOC101927070 (LOC101927070), transcript variant X5, ncRNA'
p322
sS'XR_425447'
p323
S' PREDICTED: Homo sapiens uncharacterized LOC102724819 (LOC102724819), ncRNA'
p324
sS'XR_425446'
p325
S' PREDICTED: Homo sapiens uncharacterized LOC102724774 (LOC102724774), ncRNA'
p326
sS'XR_425449'
p327
S' PREDICTED: Homo sapiens uncharacterized LOC102725405 (LOC102725405), transcript variant X2, ncRNA'
p328
sS'XR_425448'
p329
S' PREDICTED: Homo sapiens uncharacterized LOC102725405 (LOC102725405), transcript variant X1, ncRNA'
p330
sS'NM_001040071'
p331
S' Homo sapiens seven transmembrane helix receptor (LOC650293), mRNA'
p332
sS'NR_038359'
p333
S' Homo sapiens uncharacterized LOC284365 (MGC45922), long non-coding RNA'
p334
sS'XR_425539'
p335
S' PREDICTED: Homo sapiens uncharacterized LOC101928816 (LOC101928816), transcript variant X3, ncRNA'
p336
sS'NR_033871'
p337
S' Homo sapiens uncharacterized LOC400999 (FLJ42351), long non-coding RNA'
p338
sS'XR_425534'
p339
S' PREDICTED: Homo sapiens uncharacterized LOC102725407 (LOC102725407), transcript variant X3, ncRNA'
p340
sS'XR_425537'
p341
S' PREDICTED: Homo sapiens uncharacterized LOC101928513 (LOC101928513), transcript variant X3, ncRNA'
p342
sS'XR_425536'
p343
S' PREDICTED: Homo sapiens uncharacterized LOC102723421 (LOC102723421), ncRNA'
p344
sS'XR_425531'
p345
S' PREDICTED: Homo sapiens uncharacterized LOC101928374 (LOC101928374), transcript variant X2, ncRNA'
p346
sS'XR_425530'
p347
S' PREDICTED: Homo sapiens uncharacterized LOC101928327 (LOC101928327), transcript variant X4, ncRNA'
p348
sS'XR_425533'
p349
S' PREDICTED: Homo sapiens uncharacterized LOC102725407 (LOC102725407), transcript variant X2, ncRNA'
p350
sS'XR_425532'
p351
S' PREDICTED: Homo sapiens uncharacterized LOC102725407 (LOC102725407), transcript variant X1, ncRNA'
p352
sS'XR_425197'
p353
S' PREDICTED: Homo sapiens uncharacterized LOC101927871 (LOC101927871), transcript variant X3, ncRNA'
p354
sS'XR_425664'
p355
S' PREDICTED: Homo sapiens uncharacterized LOC102724343 (LOC102724343), ncRNA'
p356
sS'XR_425667'
p357
S' PREDICTED: Homo sapiens uncharacterized LOC101928105 (LOC101928105), transcript variant X2, ncRNA'
p358
sS'XR_425194'
p359
S' PREDICTED: Homo sapiens uncharacterized LOC102723436 (LOC102723436), ncRNA'
p360
sS'XR_425193'
p361
S' PREDICTED: Homo sapiens uncharacterized LOC102723480 (LOC102723480), transcript variant X3, ncRNA'
p362
sS'XR_425192'
p363
S' PREDICTED: Homo sapiens uncharacterized LOC102723480 (LOC102723480), transcript variant X2, ncRNA'
p364
sS'XR_425191'
p365
S' PREDICTED: Homo sapiens uncharacterized LOC102723480 (LOC102723480), transcript variant X1, ncRNA'
p366
sS'XR_425190'
p367
S' PREDICTED: Homo sapiens uncharacterized LOC102723542 (LOC102723542), misc_RNA'
p368
sS'XR_425669'
p369
S' PREDICTED: Homo sapiens uncharacterized LOC101928105 (LOC101928105), transcript variant X4, ncRNA'
p370
sS'XR_425199'
p371
S' PREDICTED: Homo sapiens uncharacterized LOC102724892 (LOC102724892), ncRNA'
p372
sS'XR_425198'
p373
S' PREDICTED: Homo sapiens uncharacterized LOC101930232 (LOC101930232), transcript variant X2, ncRNA'
p374
sS'XM_005275879'
p375
S' PREDICTED: Homo sapiens collagen alpha-1(III) chain-like (LOC101928728), mRNA'
p376
sS'XM_005275876'
p377
S' PREDICTED: Homo sapiens peptidyl-prolyl cis-trans isomerase A-like (LOC101060363), mRNA'
p378
sS'XM_005275875'
p379
S' PREDICTED: Homo sapiens aflatoxin B1 aldehyde reductase member 4-like (LOC101927930), mRNA'
p380
sS'NR_045207'
p381
S' Homo sapiens peptidylprolyl isomerase A (cyclophilin A) pseudogene (LOC729739), non-coding RNA'
p382
sS'XR_159398'
p383
S' PREDICTED: Homo sapiens uncharacterized LOC729224 (LOC729224), misc_RNA'
p384
sS'XR_249650'
p385
S' PREDICTED: Homo sapiens uncharacterized LOC100996694 (RP11-700N1.1), transcript variant X2, ncRNA'
p386
sS'XR_425068'
p387
S' PREDICTED: Homo sapiens uncharacterized LOC102724661 (LOC102724661), transcript variant X1, ncRNA'
p388
sS'XR_425063'
p389
S' PREDICTED: Homo sapiens uncharacterized LOC102724919 (LOC102724919), ncRNA'
p390
sS'XR_425062'
p391
S' PREDICTED: Homo sapiens uncharacterized LOC102724954 (LOC102724954), transcript variant X2, ncRNA'
p392
sS'XR_425061'
p393
S' PREDICTED: Homo sapiens uncharacterized LOC102724954 (LOC102724954), transcript variant X1, ncRNA'
p394
sS'XR_425060'
p395
S' PREDICTED: Homo sapiens uncharacterized LOC102723336 (LOC102723336), transcript variant X2, ncRNA'
p396
sS'XR_425067'
p397
S' PREDICTED: Homo sapiens uncharacterized LOC102724830 (LOC102724830), ncRNA'
p398
sS'XR_425066'
p399
S' PREDICTED: Homo sapiens uncharacterized LOC102724846 (LOC102724846), ncRNA'
p400
sS'XR_425065'
p401
S' PREDICTED: Homo sapiens uncharacterized LOC102724857 (LOC102724857), ncRNA'
p402
sS'XR_425064'
p403
S' PREDICTED: Homo sapiens uncharacterized LOC102724897 (LOC102724897), ncRNA'
p404
sS'XM_006710154'
p405
S' PREDICTED: Homo sapiens uncharacterized LOC100505710 (LOC100505710), mRNA'
p406
sS'XM_006710155'
p407
S' PREDICTED: Homo sapiens mucin-5AC-like (LOC727978), partial mRNA'
p408
sS'XM_006710157'
p409
S' PREDICTED: Homo sapiens serine/arginine repetitive matrix protein 2-like (LOC101928558), mRNA'
p410
sS'XM_006710152'
p411
S' PREDICTED: Homo sapiens uncharacterized LOC100132731 (LOC100132731), transcript variant X2, mRNA'
p412
sS'XM_006710153'
p413
S' PREDICTED: Homo sapiens uncharacterized LOC100132731 (LOC100132731), transcript variant X3, mRNA'
p414
sS'XM_006710158'
p415
S' PREDICTED: Homo sapiens uncharacterized LOC285556 (LOC285556), transcript variant X2, mRNA'
p416
sS'XM_006710159'
p417
S' PREDICTED: Homo sapiens uncharacterized LOC285556 (LOC285556), transcript variant X3, mRNA'
p418
sS'XR_249659'
p419
S' PREDICTED: Homo sapiens uncharacterized LOC100507487 (LOC100507487), transcript variant X2, ncRNA'
p420
sS'NR_024618'
p421
S' Homo sapiens uncharacterized LOC100129550 (LOC100129550), long non-coding RNA'
p422
sS'XR_112442'
p423
S' PREDICTED: Homo sapiens uncharacterized LOC729770 (LOC729770), misc_RNA'
p424
sS'XR_112513'
p425
S' PREDICTED: Homo sapiens uncharacterized LOC728290 (LOC728290), transcript variant X1, ncRNA'
p426
sS'XR_249386'
p427
S' PREDICTED: Homo sapiens uncharacterized LOC101928263 (LOC101928263), ncRNA'
p428
sS'XR_249387'
p429
S' PREDICTED: Homo sapiens uncharacterized LOC101928234 (LOC101928234), ncRNA'
p430
sS'XR_249385'
p431
S' PREDICTED: Homo sapiens uncharacterized LOC101928323 (LOC101928323), transcript variant X1, ncRNA'
p432
sS'XR_249382'
p433
S' PREDICTED: Homo sapiens uncharacterized LOC101928529 (LOC101928529), ncRNA'
p434
sS'XR_249383'
p435
S' PREDICTED: Homo sapiens uncharacterized LOC101928458 (LOC101928458), ncRNA'
p436
sS'XR_249381'
p437
S' PREDICTED: Homo sapiens uncharacterized LOC101928636 (LOC101928636), ncRNA'
p438
sS'XR_249635'
p439
S' PREDICTED: Homo sapiens uncharacterized LOC101929491 (LOC101929491), transcript variant X1, ncRNA'
p440
sS'XR_249632'
p441
S' PREDICTED: Homo sapiens uncharacterized LOC101929401 (LOC101929401), ncRNA'
p442
sS'XR_249633'
p443
S' PREDICTED: Homo sapiens uncharacterized LOC101929448 (RP11-328K4.1), transcript variant X1, ncRNA'
p444
sS'XR_248728'
p445
S' PREDICTED: Homo sapiens uncharacterized LOC101927683 (RP11-66A2.2), transcript variant X1, ncRNA'
p446
sS'XR_248727'
p447
S' PREDICTED: Homo sapiens uncharacterized LOC101927660 (LOC101927660), ncRNA'
p448
sS'XR_248724'
p449
S' PREDICTED: Homo sapiens uncharacterized LOC101927553 (LOC101927553), ncRNA'
p450
sS'XR_248723'
p451
S' PREDICTED: Homo sapiens uncharacterized LOC101927532 (LOC101927532), ncRNA'
p452
sS'XR_248722'
p453
S' PREDICTED: Homo sapiens uncharacterized LOC101927504 (LOC101927504), transcript variant X1, ncRNA'
p454
sS'XR_249639'
p455
S' PREDICTED: Homo sapiens uncharacterized LOC101929558 (LOC101929558), ncRNA'
p456
sS'XR_248659'
p457
S' PREDICTED: Homo sapiens uncharacterized LOC646976 (LOC646976), misc_RNA'
p458
sS'XR_248658'
p459
S' PREDICTED: Homo sapiens uncharacterized LOC101928933 (LOC101928933), ncRNA'
p460
sS'XR_248651'
p461
S' PREDICTED: Homo sapiens uncharacterized LOC101929120 (RP11-547I7.2), transcript variant X1, ncRNA'
p462
sS'XR_248650'
p463
S' PREDICTED: Homo sapiens uncharacterized LOC101929184 (LOC101929184), ncRNA'
p464
sS'XR_248655'
p465
S' PREDICTED: Homo sapiens uncharacterized LOC101929044 (LOC101929044), ncRNA'
p466
sS'XR_248654'
p467
S' PREDICTED: Homo sapiens uncharacterized LOC101929069 (LOC101929069), ncRNA'
p468
sS'NR_003539'
p469
S' Homo sapiens bromodomain, testis-specific pseudogene (LOC643486), non-coding RNA'
p470
sS'XR_249526'
p471
S' PREDICTED: Homo sapiens uncharacterized LOC101927866 (LOC101927866), ncRNA'
p472
sS'XR_249527'
p473
S' PREDICTED: Homo sapiens uncharacterized LOC101927832 (RP11-372E1.6), transcript variant X1, ncRNA'
p474
sS'XR_249524'
p475
S' PREDICTED: Homo sapiens uncharacterized LOC101927942 (LOC101927942), transcript variant X1, ncRNA'
p476
sS'XR_249525'
p477
S' PREDICTED: Homo sapiens uncharacterized LOC101927942 (LOC101927942), transcript variant X2, ncRNA'
p478
sS'NM_001089591'
p479
S' Homo sapiens ubiquinol-cytochrome c reductase hinge protein-like (UQCRHL), mRNA'
p480
sS'XR_248870'
p481
S' PREDICTED: Homo sapiens uncharacterized LOC101929325 (LOC101929325), ncRNA'
p482
sS'NR_104602'
p483
S' Homo sapiens uncharacterized LOC101929034 (LOC101929034), long non-coding RNA'
p484
sS'XR_248879'
p485
S' PREDICTED: Homo sapiens uncharacterized LOC101930662 (LOC101930662), ncRNA'
p486
sS'XR_248878'
p487
S' PREDICTED: Homo sapiens uncharacterized LOC101930646 (LOC101930646), ncRNA'
p488
sS'XR_249319'
p489
S' PREDICTED: Homo sapiens uncharacterized LOC101928765 (LOC101928765), ncRNA'
p490
sS'XR_249318'
p491
S' PREDICTED: Homo sapiens uncharacterized LOC101928789 (LOC101928789), ncRNA'
p492
sS'NR_026541'
p493
S' Homo sapiens solute carrier family 25, member 51 pseudogene (LOC494141), transcript variant 1, non-coding RNA'
p494
sS'NR_003713'
p495
S' Homo sapiens programmed cell death 6 pseudogene (LOC728613), non-coding RNA'
p496
sS'XR_249429'
p497
S' PREDICTED: Homo sapiens uncharacterized LOC728290 (LOC728290), transcript variant X3, ncRNA'
p498
sS'XR_249428'
p499
S' PREDICTED: Homo sapiens uncharacterized LOC728290 (LOC728290), transcript variant X2, ncRNA'
p500
sS'XR_425452'
p501
S' PREDICTED: Homo sapiens uncharacterized LOC102725405 (LOC102725405), transcript variant X5, ncRNA'
p502
sS'XR_425453'
p503
S' PREDICTED: Homo sapiens uncharacterized LOC102725405 (LOC102725405), transcript variant X6, ncRNA'
p504
sS'XR_425450'
p505
S' PREDICTED: Homo sapiens uncharacterized LOC102725405 (LOC102725405), transcript variant X3, ncRNA'
p506
sS'XR_425451'
p507
S' PREDICTED: Homo sapiens uncharacterized LOC102725405 (LOC102725405), transcript variant X4, ncRNA'
p508
sS'XR_425456'
p509
S' PREDICTED: Homo sapiens uncharacterized LOC101930489 (LOC101930489), transcript variant X2, ncRNA'
p510
sS'XR_425457'
p511
S' PREDICTED: Homo sapiens uncharacterized LOC101930489 (LOC101930489), transcript variant X3, ncRNA'
p512
sS'XR_425454'
p513
S' PREDICTED: Homo sapiens uncharacterized LOC102725405 (LOC102725405), transcript variant X7, ncRNA'
p514
sS'XR_425455'
p515
S' PREDICTED: Homo sapiens uncharacterized LOC102725405 (LOC102725405), transcript variant X8, ncRNA'
p516
sS'XR_425458'
p517
S' PREDICTED: Homo sapiens uncharacterized LOC101930489 (LOC101930489), transcript variant X4, ncRNA'
p518
sS'XR_425459'
p519
S' PREDICTED: Homo sapiens uncharacterized LOC101927400 (LOC101927400), ncRNA'
p520
sS'XR_249421'
p521
S' PREDICTED: Homo sapiens uncharacterized LOC101927249 (LOC101927249), transcript variant X2, ncRNA'
p522
sS'NR_003665'
p523
S' Homo sapiens mediator complex subunit 27 pseudogene (CRSP8P), non-coding RNA'
p524
sS'XR_425528'
p525
S' PREDICTED: Homo sapiens uncharacterized LOC102723315 (LOC102723315), ncRNA'
p526
sS'XR_425529'
p527
S' PREDICTED: Homo sapiens uncharacterized LOC102723329 (LOC102723329), ncRNA'
p528
sS'XR_425526'
p529
S' PREDICTED: Homo sapiens uncharacterized LOC100507554 (LOC100507554), transcript variant X3, ncRNA'
p530
sS'XR_425527'
p531
S' PREDICTED: Homo sapiens uncharacterized LOC101928180 (LOC101928180), transcript variant X4, ncRNA'
p532
sS'XR_425525'
p533
S' PREDICTED: Homo sapiens uncharacterized LOC102724861 (LOC102724861), ncRNA'
p534
sS'NR_033866'
p535
S" Homo sapiens protein phosphatase 2, regulatory subunit B'', beta pseudogene (LOC390705), non-coding RNA"
p536
sS'XR_425523'
p537
S' PREDICTED: Homo sapiens uncharacterized LOC102725489 (LOC102725489), ncRNA'
p538
sS'XR_425520'
p539
S' PREDICTED: Homo sapiens uncharacterized LOC101927991 (LOC101927991), transcript variant X3, ncRNA'
p540
sS'XR_425676'
p541
S' PREDICTED: Homo sapiens uncharacterized LOC101927832 (RP11-372E1.6), transcript variant X4, ncRNA'
p542
sS'NM_001004352'
p543
S" Homo sapiens putative deoxyuridine 5'-triphosphate nucleotidohydrolase-like protein FLJ16323 (LOC100506422), mRNA"
p544
sS'XR_425674'
p545
S' PREDICTED: Homo sapiens uncharacterized LOC101927832 (RP11-372E1.6), transcript variant X2, ncRNA'
p546
sS'XR_425675'
p547
S' PREDICTED: Homo sapiens uncharacterized LOC101927832 (RP11-372E1.6), transcript variant X3, ncRNA'
p548
sS'XR_425672'
p549
S' PREDICTED: Homo sapiens uncharacterized LOC102724145 (LOC102724145), ncRNA'
p550
sS'XR_425673'
p551
S' PREDICTED: Homo sapiens uncharacterized LOC102724120 (LOC102724120), ncRNA'
p552
sS'XR_425671'
p553
S' PREDICTED: Homo sapiens uncharacterized LOC102725344 (LOC102725344), ncRNA'
p554
sS'XR_425678'
p555
S' PREDICTED: Homo sapiens uncharacterized LOC102724068 (LOC102724068), ncRNA'
p556
sS'XR_425679'
p557
S' PREDICTED: Homo sapiens uncharacterized LOC100507291 (RP11-319G6.1), transcript variant X5, ncRNA'
p558
sS'NM_001101330'
p559
S' Homo sapiens hCG1645220 (LOC728819), mRNA'
p560
sS'XM_005275863'
p561
S' PREDICTED: Homo sapiens collagen alpha-1(III) chain-like (LOC101928120), mRNA'
p562
sS'XM_005275869'
p563
S' PREDICTED: Homo sapiens uncharacterized LOC101928291 (LOC101928291), mRNA'
p564
sS'XM_005275868'
p565
S' PREDICTED: Homo sapiens HERV-V_19q13.41 provirus ancestral Env polyprotein 2-like (LOC101930574), partial mRNA'
p566
sS'NR_027142'
p567
S' Homo sapiens two pore channel 3 pseudogene (LOC440895), transcript variant 2, non-coding RNA'
p568
sS'NM_177422'
p569
S' Homo sapiens argonaute RISC catalytic component 3 (AGO3), transcript variant 2, mRNA'
p570
sS'XR_159383'
p571
S' PREDICTED: Homo sapiens uncharacterized LOC100996902 (LOC100996902), ncRNA'
p572
sS'XR_159387'
p573
S' PREDICTED: Homo sapiens uncharacterized LOC100996478 (LOC100996478), ncRNA'
p574
sS'XR_425079'
p575
S' PREDICTED: Homo sapiens uncharacterized LOC100505650 (LOC100505650), ncRNA'
p576
sS'XR_425074'
p577
S' PREDICTED: Homo sapiens uncharacterized LOC102724568 (LOC102724568), ncRNA'
p578
sS'XR_425075'
p579
S' PREDICTED: Homo sapiens uncharacterized LOC102724541 (LOC102724541), ncRNA'
p580
sS'XR_425076'
p581
S' PREDICTED: Homo sapiens uncharacterized LOC102724528 (LOC102724528), ncRNA'
p582
sS'XR_425077'
p583
S' PREDICTED: Homo sapiens uncharacterized LOC101928650 (RP11-576I22.2), ncRNA'
p584
sS'XR_425070'
p585
S' PREDICTED: Homo sapiens uncharacterized LOC102724649 (LOC102724649), ncRNA'
p586
sS'XR_425071'
p587
S' PREDICTED: Homo sapiens uncharacterized LOC102724601 (LOC102724601), transcript variant X1, ncRNA'
p588
sS'XR_425072'
p589
S' PREDICTED: Homo sapiens uncharacterized LOC102724601 (LOC102724601), transcript variant X2, ncRNA'
p590
sS'XR_425073'
p591
S' PREDICTED: Homo sapiens uncharacterized LOC102724578 (LOC102724578), ncRNA'
p592
sS'XM_006710147'
p593
S' PREDICTED: Homo sapiens Sjoegren syndrome nuclear autoantigen 1 homolog (LOC102724426), mRNA'
p594
sS'XM_006710146'
p595
S' PREDICTED: Homo sapiens formin-like protein 18-like (LOC101927509), mRNA'
p596
sS'XM_006710145'
p597
S' PREDICTED: Homo sapiens rootletin-like (LOC728763), mRNA'
p598
sS'XM_006710144'
p599
S' PREDICTED: Homo sapiens uncharacterized LOC102725340 (LOC102725340), mRNA'
p600
sS'XM_006710142'
p601
S' PREDICTED: Homo sapiens uncharacterized LOC101930480 (LOC101930480), mRNA'
p602
sS'XM_006710141'
p603
S' PREDICTED: Homo sapiens ubiquitin-conjugating enzyme E2 variant 1-like (LOC102723977), mRNA'
p604
sS'XM_006710140'
p605
S' PREDICTED: Homo sapiens serine/arginine repetitive matrix protein 2-like (LOC101060825), mRNA'
p606
sS'XM_006710149'
p607
S' PREDICTED: Homo sapiens uncharacterized LOC102725450 (LOC102725450), mRNA'
p608
sS'XM_006710148'
p609
S' PREDICTED: Homo sapiens uncharacterized LOC101929702 (LOC101929702), partial mRNA'
p610
sS'XR_425522'
p611
S' PREDICTED: Homo sapiens uncharacterized LOC102725485 (LOC102725485), ncRNA'
p612
sS'XR_425188'
p613
S' PREDICTED: Homo sapiens uncharacterized LOC101928118 (RP11-57H12.3), transcript variant X3, ncRNA'
p614
sS'XR_425189'
p615
S' PREDICTED: Homo sapiens uncharacterized LOC101928118 (RP11-57H12.3), transcript variant X4, ncRNA'
p616
sS'XR_425180'
p617
S' PREDICTED: Homo sapiens uncharacterized LOC101928334 (LOC101928334), transcript variant X1, ncRNA'
p618
sS'XR_425181'
p619
S' PREDICTED: Homo sapiens uncharacterized LOC101928334 (LOC101928334), transcript variant X2, ncRNA'
p620
sS'XR_425182'
p621
S' PREDICTED: Homo sapiens uncharacterized LOC101928334 (LOC101928334), transcript variant X3, ncRNA'
p622
sS'XR_425183'
p623
S' PREDICTED: Homo sapiens uncharacterized LOC101928334 (LOC101928334), transcript variant X4, ncRNA'
p624
sS'XR_425184'
p625
S' PREDICTED: Homo sapiens uncharacterized LOC101930120 (LOC101930120), ncRNA'
p626
sS'XR_425185'
p627
S' PREDICTED: Homo sapiens uncharacterized LOC102723700 (LOC102723700), ncRNA'
p628
sS'XR_425186'
p629
S' PREDICTED: Homo sapiens uncharacterized LOC102723661 (LOC102723661), ncRNA'
p630
sS'XR_425187'
p631
S' PREDICTED: Homo sapiens uncharacterized LOC101928118 (RP11-57H12.3), transcript variant X2, ncRNA'
p632
sS'XR_249228'
p633
S' PREDICTED: Homo sapiens uncharacterized LOC101929356 (LOC101929356), ncRNA'
p634
sS'XM_005275949'
p635
S' PREDICTED: Homo sapiens chitinase-like protein PB1E7.04c-like (LOC100506944), mRNA'
p636
sS'XM_005275947'
p637
S' PREDICTED: Homo sapiens Fanconi anemia group D2 protein-like (LOC101929530), mRNA'
p638
sS'XM_005275942'
p639
S' PREDICTED: Homo sapiens zinc finger protein 3-like (LOC101928592), partial mRNA'
p640
sS'XR_112304'
p641
S' PREDICTED: Homo sapiens uncharacterized LOC100505774 (LOC100505774), ncRNA'
p642
sS'XR_425771'
p643
S' PREDICTED: Homo sapiens uncharacterized LOC102724176 (LOC102724176), ncRNA'
p644
sS'XR_425770'
p645
S' PREDICTED: Homo sapiens uncharacterized LOC102724158 (LOC102724158), ncRNA'
p646
sS'XM_001715471'
p647
S' PREDICTED: Homo sapiens UPF0607 protein ENSP00000383783-like (LOC100131107), mRNA'
p648
sS'XR_248730'
p649
S' PREDICTED: Homo sapiens uncharacterized LOC101927711 (LOC101927711), ncRNA'
p650
sS'XR_248731'
p651
S' PREDICTED: Homo sapiens uncharacterized LOC101927736 (LOC101927736), ncRNA'
p652
sS'XR_248737'
p653
S' PREDICTED: Homo sapiens uncharacterized LOC101927906 (LOC101927906), ncRNA'
p654
sS'XR_248739'
p655
S' PREDICTED: Homo sapiens uncharacterized LOC100506929 (LOC100506929), transcript variant X3, ncRNA'
p656
sS'XR_112396'
p657
S' PREDICTED: Homo sapiens uncharacterized LOC100507460 (LOC100507460), misc_RNA'
p658
sS'XR_112543'
p659
S' PREDICTED: Homo sapiens uncharacterized LOC100505902 (LOC100505902), ncRNA'
p660
sS'XR_249287'
p661
S' PREDICTED: Homo sapiens uncharacterized LOC101927960 (LOC101927960), transcript variant X2, ncRNA'
p662
sS'XR_249286'
p663
S' PREDICTED: Homo sapiens uncharacterized LOC101927960 (LOC101927960), transcript variant X1, ncRNA'
p664
sS'XR_249289'
p665
S' PREDICTED: Homo sapiens uncharacterized LOC101927991 (LOC101927991), transcript variant X2, ncRNA'
p666
sS'XR_249288'
p667
S' PREDICTED: Homo sapiens uncharacterized LOC101927991 (LOC101927991), transcript variant X1, ncRNA'
p668
sS'XR_248649'
p669
S' PREDICTED: Homo sapiens uncharacterized LOC400800 (FLJ43585), misc_RNA'
p670
sS'XR_248644'
p671
S' PREDICTED: Homo sapiens uncharacterized LOC101929367 (LOC101929367), ncRNA'
p672
sS'XR_248645'
p673
S' PREDICTED: Homo sapiens uncharacterized LOC101929343 (LOC101929343), ncRNA'
p674
sS'XR_248646'
p675
S' PREDICTED: Homo sapiens uncharacterized LOC101929326 (LOC101929326), ncRNA'
p676
sS'XR_248647'
p677
S' PREDICTED: Homo sapiens uncharacterized LOC101929305 (LOC101929305), ncRNA'
p678
sS'XR_248640'
p679
S' PREDICTED: Homo sapiens uncharacterized LOC101929459 (LOC101929459), transcript variant X1, ncRNA'
p680
sS'XR_248643'
p681
S' PREDICTED: Homo sapiens uncharacterized LOC101929388 (LOC101929388), ncRNA'
p682
sS'XR_249518'
p683
S' PREDICTED: Homo sapiens uncharacterized LOC101928061 (LOC101928061), ncRNA'
p684
sS'XR_249517'
p685
S' PREDICTED: Homo sapiens uncharacterized LOC101928085 (LOC101928085), transcript variant X1, ncRNA'
p686
sS'XR_249514'
p687
S' PREDICTED: Homo sapiens uncharacterized LOC101928105 (LOC101928105), transcript variant X1, ncRNA'
p688
sS'XR_249512'
p689
S' PREDICTED: Homo sapiens uncharacterized LOC101928166 (LOC101928166), ncRNA'
p690
sS'NR_026740'
p691
S' Homo sapiens placenta-specific 9 pseudogene (LOC389033), non-coding RNA'
p692
sS'XR_249608'
p693
S' PREDICTED: Homo sapiens uncharacterized LOC101928702 (LOC101928702), ncRNA'
p694
sS'XR_249603'
p695
S' PREDICTED: Homo sapiens uncharacterized LOC101927145 (LOC101927145), transcript variant X2, ncRNA'
p696
sS'XR_249602'
p697
S' PREDICTED: Homo sapiens uncharacterized LOC101927145 (LOC101927145), transcript variant X1, ncRNA'
p698
sS'XR_249353'
p699
S' PREDICTED: Homo sapiens uncharacterized LOC101927174 (LOC101927174), transcript variant X2, ncRNA'
p700
sS'XR_249352'
p701
S' PREDICTED: Homo sapiens uncharacterized LOC101927174 (LOC101927174), transcript variant X1, ncRNA'
p702
sS'XR_249607'
p703
S' PREDICTED: Homo sapiens uncharacterized LOC101927297 (LOC101927297), ncRNA'
p704
sS'XR_249606'
p705
S' PREDICTED: Homo sapiens uncharacterized LOC101930401 (LOC101930401), ncRNA'
p706
sS'XR_249604'
p707
S' PREDICTED: Homo sapiens uncharacterized LOC101927145 (LOC101927145), transcript variant X3, ncRNA'
p708
sS'XR_248868'
p709
S' PREDICTED: Homo sapiens uncharacterized LOC101929147 (RP11-418J17.1), transcript variant X2, ncRNA'
p710
sS'XR_248869'
p711
S' PREDICTED: Homo sapiens uncharacterized LOC101928066 (LOC101928066), transcript variant X1, ncRNA'
p712
sS'XM_003846653'
p713
S' PREDICTED: Homo sapiens putative T-cell surface glycoprotein CD8 beta-2 chain-like (LOC100996919), mRNA'
p714
sS'XR_248861'
p715
S' PREDICTED: Homo sapiens uncharacterized LOC101928890 (LOC101928890), ncRNA'
p716
sS'XR_248862'
p717
S' PREDICTED: Homo sapiens uncharacterized LOC101928977 (LOC101928977), transcript variant X1, ncRNA'
p718
sS'XR_248864'
p719
S' PREDICTED: Homo sapiens uncharacterized LOC101929023 (RP4-655J12.4), transcript variant X1, ncRNA'
p720
sS'NR_026806'
p721
S' Homo sapiens uncharacterized LOC79857 (FLJ13224), long non-coding RNA'
p722
sS'NR_033981'
p723
S' Homo sapiens uncharacterized LOC400761 (FLJ27354), long non-coding RNA'
p724
sS'XR_425467'
p725
S' PREDICTED: Homo sapiens uncharacterized LOC102723413 (LOC102723413), transcript variant X2, ncRNA'
p726
sS'XR_425466'
p727
S' PREDICTED: Homo sapiens uncharacterized LOC102723413 (LOC102723413), transcript variant X1, ncRNA'
p728
sS'XR_425465'
p729
S' PREDICTED: Homo sapiens uncharacterized LOC100506797 (LOC100506797), transcript variant X2, ncRNA'
p730
sS'XR_425464'
p731
S' PREDICTED: Homo sapiens uncharacterized LOC101927764 (LOC101927764), transcript variant X4, ncRNA'
p732
sS'XR_425463'
p733
S' PREDICTED: Homo sapiens uncharacterized LOC101927764 (LOC101927764), transcript variant X3, ncRNA'
p734
sS'XR_425462'
p735
S' PREDICTED: Homo sapiens uncharacterized LOC100125918 (LOC100125918), misc_RNA'
p736
sS'XR_425461'
p737
S' PREDICTED: Homo sapiens uncharacterized LOC101927330 (LOC101927330), transcript variant X3, ncRNA'
p738
sS'XR_425460'
p739
S' PREDICTED: Homo sapiens uncharacterized LOC102724955 (LOC102724955), ncRNA'
p740
sS'XR_425469'
p741
S' PREDICTED: Homo sapiens uncharacterized LOC102723551 (LOC102723551), ncRNA'
p742
sS'XR_425468'
p743
S' PREDICTED: Homo sapiens uncharacterized LOC101927801 (LOC101927801), ncRNA'
p744
sS'XM_003119777'
p745
S' PREDICTED: Homo sapiens uncharacterized LOC100506571 (LOC100506571), mRNA'
p746
sS'XR_425513'
p747
S' PREDICTED: Homo sapiens uncharacterized LOC102724692 (LOC102724692), transcript variant X1, ncRNA'
p748
sS'XR_425512'
p749
S' PREDICTED: Homo sapiens uncharacterized LOC102724675 (LOC102724675), ncRNA'
p750
sS'XR_425511'
p751
S' PREDICTED: Homo sapiens uncharacterized LOC102724650 (LOC102724650), transcript variant X2, ncRNA'
p752
sS'XR_425510'
p753
S' PREDICTED: Homo sapiens uncharacterized LOC102724650 (LOC102724650), transcript variant X1, ncRNA'
p754
sS'XR_425517'
p755
S' PREDICTED: Homo sapiens uncharacterized LOC101927960 (LOC101927960), transcript variant X3, ncRNA'
p756
sS'XR_425516'
p757
S' PREDICTED: Homo sapiens uncharacterized LOC102724714 (LOC102724714), ncRNA'
p758
sS'NR_038379'
p759
S' Homo sapiens leucine carboxyl methyltransferase 1 pseudogene (LOC554206), non-coding RNA'
p760
sS'XR_425514'
p761
S' PREDICTED: Homo sapiens uncharacterized LOC102724692 (LOC102724692), transcript variant X2, ncRNA'
p762
sS'XR_425519'
p763
S' PREDICTED: Homo sapiens uncharacterized LOC101927960 (LOC101927960), transcript variant X5, ncRNA'
p764
sS'XR_425518'
p765
S' PREDICTED: Homo sapiens uncharacterized LOC101927960 (LOC101927960), transcript variant X4, ncRNA'
p766
sS'XR_425081'
p767
S' PREDICTED: Homo sapiens uncharacterized LOC102724017 (LOC102724017), transcript variant X2, ncRNA'
p768
sS'XR_425080'
p769
S' PREDICTED: Homo sapiens uncharacterized LOC102724017 (LOC102724017), transcript variant X1, ncRNA'
p770
sS'XR_425083'
p771
S' PREDICTED: Homo sapiens uncharacterized LOC102724017 (LOC102724017), transcript variant X4, ncRNA'
p772
sS'XR_425082'
p773
S' PREDICTED: Homo sapiens uncharacterized LOC102724017 (LOC102724017), transcript variant X3, ncRNA'
p774
sS'XR_425085'
p775
S' PREDICTED: Homo sapiens uncharacterized LOC102723986 (LOC102723986), transcript variant X1, ncRNA'
p776
sS'XR_425084'
p777
S' PREDICTED: Homo sapiens uncharacterized LOC100506161 (LOC100506161), transcript variant X2, ncRNA'
p778
sS'XR_425087'
p779
S' PREDICTED: Homo sapiens uncharacterized LOC102725446 (LOC102725446), ncRNA'
p780
sS'XR_425086'
p781
S' PREDICTED: Homo sapiens uncharacterized LOC102723986 (LOC102723986), transcript variant X2, ncRNA'
p782
sS'XR_425089'
p783
S' PREDICTED: Homo sapiens uncharacterized LOC102723886 (LOC102723886), ncRNA'
p784
sS'XR_425088'
p785
S' PREDICTED: Homo sapiens uncharacterized LOC101929713 (LOC101929713), transcript variant X2, ncRNA'
p786
sS'XM_005275929'
p787
S' PREDICTED: Homo sapiens basic proline-rich protein-like (LOC100506922), mRNA'
p788
sS'XM_005275924'
p789
S' PREDICTED: Homo sapiens collagen alpha-1(I) chain-like (LOC100996535), mRNA'
p790
sS'XM_005275925'
p791
S' PREDICTED: Homo sapiens glycosylphosphatidylinositol anchor attachment 1 protein-like (LOC101930385), mRNA'
p792
sS'XM_005275926'
p793
S' PREDICTED: Homo sapiens serine/arginine repetitive matrix protein 3-like (LOC101930279), mRNA'
p794
sS'XM_005275927'
p795
S' PREDICTED: Homo sapiens uncharacterized LOC101927614 (LOC101927614), mRNA'
p796
sS'XM_005275922'
p797
S' PREDICTED: Homo sapiens putative aquaporin-7-like protein 3-like (LOC100509620), transcript variant X3, mRNA'
p798
sS'NR_027046'
p799
S' Homo sapiens uncharacterized LOC145474 (LOC145474), long non-coding RNA'
p800
sS'XR_133382'
p801
S' PREDICTED: Homo sapiens uncharacterized LOC100505784 (LOC100505784), ncRNA'
p802
sS'XR_425648'
p803
S' PREDICTED: Homo sapiens uncharacterized LOC101929079 (LOC101929079), transcript variant X2, ncRNA'
p804
sS'XR_425643'
p805
S' PREDICTED: Homo sapiens uncharacterized LOC102724779 (LOC102724779), ncRNA'
p806
sS'XR_425642'
p807
S' PREDICTED: Homo sapiens uncharacterized LOC102724808 (LOC102724808), ncRNA'
p808
sS'XR_425641'
p809
S' PREDICTED: Homo sapiens uncharacterized LOC285389 (LOC285389), transcript variant X5, misc_RNA'
p810
sS'XR_425640'
p811
S' PREDICTED: Homo sapiens uncharacterized LOC285389 (LOC285389), transcript variant X4, misc_RNA'
p812
sS'XR_425647'
p813
S' PREDICTED: Homo sapiens uncharacterized LOC102725272 (LOC102725272), ncRNA'
p814
sS'XR_425646'
p815
S' PREDICTED: Homo sapiens uncharacterized LOC102724756 (LOC102724756), ncRNA'
p816
sS'XR_425645'
p817
S' PREDICTED: Homo sapiens uncharacterized LOC101060141 (LOC101060141), transcript variant X2, ncRNA'
p818
sS'XR_425644'
p819
S' PREDICTED: Homo sapiens uncharacterized LOC101060141 (LOC101060141), transcript variant X1, ncRNA'
p820
sS'XR_112044'
p821
S' PREDICTED: Homo sapiens uncharacterized LOC644083 (LOC644083), misc_RNA'
p822
sS'XR_112312'
p823
S' PREDICTED: Homo sapiens uncharacterized LOC100506047 (LOC100506047), ncRNA'
p824
sS'XM_001717423'
p825
S' PREDICTED: Homo sapiens uncharacterized LOC285556 (LOC285556), transcript variant X1, mRNA'
p826
sS'NR_015447'
p827
S' Homo sapiens uncharacterized LOC153684 (LOC153684), long non-coding RNA'
p828
sS'NR_015441'
p829
S' Homo sapiens potassium channel tetramerization domain containing 5 pseudogene (LOC652276), non-coding RNA'
p830
sS'XR_248745'
p831
S' PREDICTED: Homo sapiens uncharacterized LOC101927507 (LOC101927507), transcript variant X1, ncRNA'
p832
sS'XR_248744'
p833
S' PREDICTED: Homo sapiens uncharacterized LOC101928226 (LOC101928226), ncRNA'
p834
sS'XR_248747'
p835
S' PREDICTED: Homo sapiens uncharacterized LOC101927479 (LOC101927479), ncRNA'
p836
sS'XR_248746'
p837
S' PREDICTED: Homo sapiens uncharacterized LOC101927507 (LOC101927507), transcript variant X2, ncRNA'
p838
sS'XR_248741'
p839
S' PREDICTED: Homo sapiens uncharacterized LOC101928089 (LOC101928089), ncRNA'
p840
sS'XR_248740'
p841
S' PREDICTED: Homo sapiens uncharacterized LOC101928139 (LOC101928139), ncRNA'
p842
sS'NR_024569'
p843
S' Homo sapiens uncharacterized LOC100130872 (LOC100130872), long non-coding RNA'
p844
sS'XR_248742'
p845
S' PREDICTED: Homo sapiens uncharacterized LOC101930248 (LOC101930248), ncRNA'
p846
sS'XR_248749'
p847
S' PREDICTED: Homo sapiens uncharacterized LOC101927441 (LOC101927441), transcript variant X2, ncRNA'
p848
sS'XR_248748'
p849
S' PREDICTED: Homo sapiens uncharacterized LOC101927441 (LOC101927441), transcript variant X1, ncRNA'
p850
sS'XR_249298'
p851
S' PREDICTED: Homo sapiens uncharacterized LOC101928180 (LOC101928180), transcript variant X2, ncRNA'
p852
sS'XR_249299'
p853
S' PREDICTED: Homo sapiens uncharacterized LOC101928180 (LOC101928180), transcript variant X3, ncRNA'
p854
sS'XR_249293'
p855
S' PREDICTED: Homo sapiens uncharacterized LOC101928084 (LOC101928084), ncRNA'
p856
sS'XR_249295'
p857
S' PREDICTED: Homo sapiens uncharacterized LOC100507554 (LOC100507554), transcript variant X2, ncRNA'
p858
sS'XR_249296'
p859
S' PREDICTED: Homo sapiens uncharacterized LOC101928156 (LOC101928156), ncRNA'
p860
sS'XR_249297'
p861
S' PREDICTED: Homo sapiens uncharacterized LOC101928180 (LOC101928180), transcript variant X1, ncRNA'
p862
sS'XM_001727011'
p863
S' PREDICTED: Homo sapiens peptidyl-prolyl cis-trans isomerase A-like (LOC650157), mRNA'
p864
sS'NR_024418'
p865
S' Homo sapiens uncharacterized LOC389332 (LOC389332), long non-coding RNA'
p866
sS'NR_024413'
p867
S' Homo sapiens uncharacterized LOC401105 (FLJ42393), long non-coding RNA'
p868
sS'XR_249500'
p869
S' PREDICTED: Homo sapiens uncharacterized LOC101928583 (LOC101928583), ncRNA'
p870
sS'XR_249504'
p871
S' PREDICTED: Homo sapiens uncharacterized LOC101928430 (LOC101928430), ncRNA'
p872
sS'XR_249505'
p873
S' PREDICTED: Homo sapiens uncharacterized LOC101928405 (LOC101928405), ncRNA'
p874
sS'XR_249507'
p875
S' PREDICTED: Homo sapiens uncharacterized LOC101928351 (LOC101928351), ncRNA'
p876
sS'XR_249509'
p877
S' PREDICTED: Homo sapiens uncharacterized LOC101928236 (LOC101928236), transcript variant X1, ncRNA'
p878
sS'XR_249349'
p879
S' PREDICTED: Homo sapiens uncharacterized LOC101930259 (LOC101930259), ncRNA'
p880
sS'XR_249618'
p881
S' PREDICTED: Homo sapiens uncharacterized LOC101929015 (LOC101929015), ncRNA'
p882
sS'XR_249342'
p883
S' PREDICTED: Homo sapiens uncharacterized LOC101927440 (LOC101927440), ncRNA'
p884
sS'XR_249615'
p885
S' PREDICTED: Homo sapiens uncharacterized LOC101928963 (LOC101928963), ncRNA'
p886
sS'XR_249340'
p887
S' PREDICTED: Homo sapiens uncharacterized LOC101930506 (LOC101930506), misc_RNA'
p888
sS'XR_249617'
p889
S' PREDICTED: Homo sapiens uncharacterized LOC101928978 (LOC101928978), transcript variant X2, ncRNA'
p890
sS'NR_024563'
p891
S' Homo sapiens uncharacterized LOC100130238 (LOC100130238), long non-coding RNA'
p892
sS'XR_249611'
p893
S' PREDICTED: Homo sapiens uncharacterized LOC101928864 (LOC101928864), ncRNA'
p894
sS'XR_249612'
p895
S' PREDICTED: Homo sapiens uncharacterized LOC101928893 (LOC101928893), ncRNA'
p896
sS'XR_249613'
p897
S' PREDICTED: Homo sapiens uncharacterized LOC101928918 (LOC101928918), ncRNA'
p898
sS'XR_248814'
p899
S' PREDICTED: Homo sapiens uncharacterized LOC101928801 (LOC101928801), ncRNA'
p900
sS'XR_248816'
p901
S' PREDICTED: Homo sapiens uncharacterized LOC101928895 (LOC101928895), ncRNA'
p902
sS'XR_248811'
p903
S' PREDICTED: Homo sapiens uncharacterized LOC101929757 (LOC101929757), ncRNA'
p904
sS'XM_003846648'
p905
S' PREDICTED: Homo sapiens uncharacterized LOC100996924 (LOC100996924), mRNA'
p906
sS'XR_425803'
p907
S' PREDICTED: Homo sapiens uncharacterized LOC102723359 (LOC102723359), ncRNA'
p908
sS'NR_024278'
p909
S' Homo sapiens uncharacterized LOC646762 (LOC646762), long non-coding RNA'
p910
sS'XR_425504'
p911
S' PREDICTED: Homo sapiens uncharacterized LOC102724367 (LOC102724367), transcript variant X3, ncRNA'
p912
sS'XR_425505'
p913
S' PREDICTED: Homo sapiens uncharacterized LOC102724395 (LOC102724395), ncRNA'
p914
sS'XR_425506'
p915
S' PREDICTED: Homo sapiens uncharacterized LOC101927252 (LOC101927252), transcript variant X2, ncRNA'
p916
sS'XR_425507'
p917
S' PREDICTED: Homo sapiens uncharacterized LOC102725423 (LOC102725423), ncRNA'
p918
sS'XR_425500'
p919
S' PREDICTED: Homo sapiens uncharacterized LOC102724340 (LOC102724340), ncRNA'
p920
sS'XR_425501'
p921
S' PREDICTED: Homo sapiens uncharacterized LOC102724349 (LOC102724349), ncRNA'
p922
sS'XR_425502'
p923
S' PREDICTED: Homo sapiens uncharacterized LOC102724367 (LOC102724367), transcript variant X1, ncRNA'
p924
sS'XR_425503'
p925
S' PREDICTED: Homo sapiens uncharacterized LOC102724367 (LOC102724367), transcript variant X2, ncRNA'
p926
sS'XR_425508'
p927
S' PREDICTED: Homo sapiens uncharacterized LOC102724498 (LOC102724498), ncRNA'
p928
sS'XR_425509'
p929
S' PREDICTED: Homo sapiens uncharacterized LOC101927596 (LOC101927596), transcript variant X2, ncRNA'
p930
sS'NR_036490'
p931
S' Homo sapiens uncharacterized LOC284648 (LOC284648), long non-coding RNA'
p932
sS'XR_111936'
p933
S' PREDICTED: Homo sapiens uncharacterized LOC100507670 (LOC100507670), ncRNA'
p934
sS'NM_001242853'
p935
S' Homo sapiens beta-defensin 131-like (LOC100129216), mRNA'
p936
sS'XR_425478'
p937
S' PREDICTED: Homo sapiens uncharacterized LOC102723949 (LOC102723949), transcript variant X1, ncRNA'
p938
sS'XR_425479'
p939
S' PREDICTED: Homo sapiens uncharacterized LOC102723949 (LOC102723949), transcript variant X2, ncRNA'
p940
sS'XR_425470'
p941
S' PREDICTED: Homo sapiens uncharacterized LOC101927834 (LOC101927834), ncRNA'
p942
sS'XR_425472'
p943
S' PREDICTED: Homo sapiens uncharacterized LOC102723797 (LOC102723797), ncRNA'
p944
sS'XR_425473'
p945
S' PREDICTED: Homo sapiens uncharacterized LOC102723718 (LOC102723718), ncRNA'
p946
sS'XR_425474'
p947
S' PREDICTED: Homo sapiens uncharacterized LOC100131270 (LOC100131270), misc_RNA'
p948
sS'XR_425475'
p949
S' PREDICTED: Homo sapiens uncharacterized LOC102725484 (LOC102725484), ncRNA'
p950
sS'XR_425477'
p951
S' PREDICTED: Homo sapiens uncharacterized LOC102723938 (LOC102723938), ncRNA'
p952
sS'XR_425091'
p953
S' PREDICTED: Homo sapiens uncharacterized LOC102723802 (LOC102723802), ncRNA'
p954
sS'XR_425097'
p955
S' PREDICTED: Homo sapiens uncharacterized LOC101930114 (LOC101930114), ncRNA'
p956
sS'XR_425095'
p957
S' PREDICTED: Homo sapiens uncharacterized LOC102723761 (LOC102723761), ncRNA'
p958
sS'XR_425098'
p959
S' PREDICTED: Homo sapiens uncharacterized LOC101929385 (LOC101929385), transcript variant X4, ncRNA'
p960
sS'XR_425099'
p961
S' PREDICTED: Homo sapiens uncharacterized LOC101929385 (LOC101929385), transcript variant X5, ncRNA'
p962
sS'XM_006710160'
p963
S' PREDICTED: Homo sapiens centrosomal protein of 170 kDa-like (LOC102725459), mRNA'
p964
sS'XM_005275938'
p965
S' PREDICTED: Homo sapiens rootletin-like (LOC728763), mRNA'
p966
sS'XM_005275937'
p967
S' PREDICTED: Homo sapiens uncharacterized LOC101930667 (LOC101930667), mRNA'
p968
sS'XM_005275934'
p969
S' PREDICTED: Homo sapiens uncharacterized LOC100505498 (LOC100505498), mRNA'
p970
sS'XM_005275933'
p971
S' PREDICTED: Homo sapiens rho guanine nucleotide exchange factor 4-like (LOC101930241), transcript variant X3, mRNA'
p972
sS'XM_005275932'
p973
S' PREDICTED: Homo sapiens rho guanine nucleotide exchange factor 4-like (LOC101930241), transcript variant X2, mRNA'
p974
sS'XM_005275931'
p975
S' PREDICTED: Homo sapiens rho guanine nucleotide exchange factor 4-like (LOC101930241), transcript variant X1, mRNA'
p976
sS'XM_005275930'
p977
S' PREDICTED: Homo sapiens tubulin alpha-3E chain-like (LOC101930571), mRNA'
p978
sS'XR_425658'
p979
S' PREDICTED: Homo sapiens uncharacterized LOC102724479 (LOC102724479), ncRNA'
p980
sS'XR_425659'
p981
S' PREDICTED: Homo sapiens uncharacterized LOC102724419 (LOC102724419), ncRNA'
p982
sS'XR_425654'
p983
S' PREDICTED: Homo sapiens uncharacterized LOC102724617 (LOC102724617), ncRNA'
p984
sS'XR_425656'
p985
S' PREDICTED: Homo sapiens uncharacterized LOC101928856 (LOC101928856), transcript variant X2, ncRNA'
p986
sS'XR_425650'
p987
S' PREDICTED: Homo sapiens uncharacterized LOC102724686 (LOC102724686), ncRNA'
p988
sS'XR_425651'
p989
S' PREDICTED: Homo sapiens uncharacterized LOC101929018 (LOC101929018), transcript variant X2, ncRNA'
p990
sS'XR_425652'
p991
S' PREDICTED: Homo sapiens uncharacterized LOC101929018 (LOC101929018), transcript variant X3, ncRNA'
p992
sS'XR_425653'
p993
S' PREDICTED: Homo sapiens uncharacterized LOC102724628 (LOC102724628), ncRNA'
p994
sS'XR_133353'
p995
S' PREDICTED: Homo sapiens uncharacterized LOC100505920 (LOC100505920), ncRNA'
p996
sS'NR_036475'
p997
S' Homo sapiens Dexi homolog (mouse) pseudogene (LOC100289656), non-coding RNA'
p998
sS'XR_112030'
p999
S' PREDICTED: Homo sapiens uncharacterized LOC440742 (LOC440742), misc_RNA'
p1000
sS'XR_112363'
p1001
S' PREDICTED: Homo sapiens uncharacterized LOC100506286 (LOC100506286), ncRNA'
p1002
sS'NR_109870'
p1003
S' Homo sapiens uncharacterized LOC100505515 (LOC100505515), long non-coding RNA'
p1004
sS'XR_248757'
p1005
S' PREDICTED: Homo sapiens uncharacterized LOC101928189 (LOC101928189), transcript variant X1, ncRNA'
p1006
sS'XR_248752'
p1007
S' PREDICTED: Homo sapiens uncharacterized LOC101927895 (LOC101927895), transcript variant X1, ncRNA'
p1008
sS'XR_248750'
p1009
S' PREDICTED: Homo sapiens uncharacterized LOC101927417 (LOC101927417), transcript variant X1, ncRNA'
p1010
sS'XR_425751'
p1011
S' PREDICTED: Homo sapiens uncharacterized LOC102723576 (LOC102723576), ncRNA'
p1012
sS'NR_024409'
p1013
S' Homo sapiens four and a half LIM domains 1 pseudogene (LOC100128164), transcript variant 2, non-coding RNA'
p1014
sS'XR_425743'
p1015
S' PREDICTED: Homo sapiens uncharacterized LOC102724916 (LOC102724916), ncRNA'
p1016
sS'XR_425750'
p1017
S' PREDICTED: Homo sapiens uncharacterized LOC102723488 (LOC102723488), ncRNA'
p1018
sS'XR_249192'
p1019
S' PREDICTED: Homo sapiens uncharacterized LOC101927330 (LOC101927330), transcript variant X2, ncRNA'
p1020
sS'XR_249191'
p1021
S' PREDICTED: Homo sapiens uncharacterized LOC101927330 (LOC101927330), transcript variant X1, ncRNA'
p1022
sS'XR_249190'
p1023
S' PREDICTED: Homo sapiens uncharacterized LOC101927382 (LOC101927382), ncRNA'
p1024
sS'XR_249196'
p1025
S' PREDICTED: Homo sapiens uncharacterized LOC101927734 (LOC101927734), ncRNA'
p1026
sS'XR_249195'
p1027
S' PREDICTED: Homo sapiens uncharacterized LOC101927764 (LOC101927764), transcript variant X2, ncRNA'
p1028
sS'XR_249194'
p1029
S' PREDICTED: Homo sapiens uncharacterized LOC101927764 (LOC101927764), transcript variant X1, ncRNA'
p1030
sS'XR_249575'
p1031
S' PREDICTED: Homo sapiens uncharacterized LOC101929161 (LOC101929161), transcript variant X2, ncRNA'
p1032
sS'XR_249577'
p1033
S' PREDICTED: Homo sapiens uncharacterized LOC101927363 (LOC101927363), ncRNA'
p1034
sS'XR_249570'
p1035
S' PREDICTED: Homo sapiens uncharacterized LOC101929048 (LOC101929048), ncRNA'
p1036
sS'XR_249572'
p1037
S' PREDICTED: Homo sapiens uncharacterized LOC101929095 (RP11-665G4.1), ncRNA'
p1038
sS'XR_425755'
p1039
S' PREDICTED: Homo sapiens uncharacterized LOC101929491 (LOC101929491), transcript variant X3, ncRNA'
p1040
sS'XR_425754'
p1041
S' PREDICTED: Homo sapiens uncharacterized LOC101929491 (LOC101929491), transcript variant X2, ncRNA'
p1042
sS'XR_425757'
p1043
S' PREDICTED: Homo sapiens uncharacterized LOC101929595 (RP11-286E11.1), transcript variant X2, ncRNA'
p1044
sS'XM_006710139'
p1045
S' PREDICTED: Homo sapiens uncharacterized LOC102725516 (LOC102725516), mRNA'
p1046
sS'XR_249379'
p1047
S' PREDICTED: Homo sapiens uncharacterized LOC101928838 (LOC101928838), transcript variant X2, ncRNA'
p1048
sS'XR_249375'
p1049
S' PREDICTED: Homo sapiens uncharacterized LOC101928965 (LOC101928965), transcript variant X2, ncRNA'
p1050
sS'XR_249373'
p1051
S' PREDICTED: Homo sapiens uncharacterized LOC101929054 (LOC101929054), transcript variant X1, ncRNA'
p1052
sS'XR_249371'
p1053
S' PREDICTED: Homo sapiens uncharacterized LOC101929119 (LOC101929119), ncRNA'
p1054
sS'XR_249370'
p1055
S' PREDICTED: Homo sapiens uncharacterized LOC101929138 (LOC101929138), ncRNA'
p1056
sS'XR_249409'
p1057
S' PREDICTED: Homo sapiens uncharacterized LOC152274 (RP11-95M5.1), misc_RNA'
p1058
sS'XR_249408'
p1059
S' PREDICTED: Homo sapiens uncharacterized LOC101927647 (LOC101927647), ncRNA'
p1060
sS'NR_110160'
p1061
S' Homo sapiens uncharacterized LOC100996249 (LOC100996249), transcript variant 2, long non-coding RNA'
p1062
sS'XR_248806'
p1063
S' PREDICTED: Homo sapiens uncharacterized LOC101926907 (LOC101926907), ncRNA'
p1064
sS'XR_249403'
p1065
S' PREDICTED: Homo sapiens uncharacterized LOC101927725 (LOC101927725), ncRNA'
p1066
sS'XR_248805'
p1067
S' PREDICTED: Homo sapiens uncharacterized LOC101926925 (RP4-794H19.4), transcript variant X1, ncRNA'
p1068
sS'XR_249405'
p1069
S' PREDICTED: Homo sapiens uncharacterized LOC101927674 (LOC101927674), transcript variant X2, ncRNA'
p1070
sS'XR_249404'
p1071
S' PREDICTED: Homo sapiens uncharacterized LOC101927674 (LOC101927674), transcript variant X1, ncRNA'
p1072
sS'XR_249407'
p1073
S' PREDICTED: Homo sapiens uncharacterized LOC101927674 (LOC101927674), transcript variant X4, ncRNA'
p1074
sS'XR_249406'
p1075
S' PREDICTED: Homo sapiens uncharacterized LOC101927674 (LOC101927674), transcript variant X3, ncRNA'
p1076
sS'NR_104673'
p1077
S' Homo sapiens uncharacterized LOC102467216 (LOC102467216), long non-coding RNA'
p1078
sS'XR_425747'
p1079
S' PREDICTED: Homo sapiens uncharacterized LOC102723404 (LOC102723404), transcript variant X2, ncRNA'
p1080
sS'NR_027288'
p1081
S' Homo sapiens SUMO1 activating enzyme subunit 1 pseudogene (LOC341056), non-coding RNA'
p1082
sS'NR_027442'
p1083
S' Homo sapiens UDP-GlcNAc:betaGal beta-1,3-N-acetylglucosaminyltransferase 5 pseudogene (LOC100288842), non-coding RNA'
p1084
sS'XM_003403772'
p1085
S' PREDICTED: Homo sapiens uncharacterized LOC100132731 (LOC100132731), transcript variant X1, mRNA'
p1086
sS'NR_038424'
p1087
S' Homo sapiens microtubule-associated protein 1 light chain 3 beta pseudogene (GS1-279B7.1), non-coding RNA'
p1088
sS'XR_425799'
p1089
S' PREDICTED: Homo sapiens uncharacterized LOC102724899 (LOC102724899), ncRNA'
p1090
sS'XR_425798'
p1091
S' PREDICTED: Homo sapiens uncharacterized LOC102724842 (LOC102724842), transcript variant X2, ncRNA'
p1092
sS'XR_425795'
p1093
S' PREDICTED: Homo sapiens uncharacterized LOC102724809 (LOC102724809), transcript variant X1, ncRNA'
p1094
sS'XR_425794'
p1095
S' PREDICTED: Homo sapiens uncharacterized LOC102724785 (LOC102724785), transcript variant X2, ncRNA'
p1096
sS'XR_425797'
p1097
S' PREDICTED: Homo sapiens uncharacterized LOC102724842 (LOC102724842), transcript variant X1, ncRNA'
p1098
sS'XR_425796'
p1099
S' PREDICTED: Homo sapiens uncharacterized LOC102724809 (LOC102724809), transcript variant X2, ncRNA'
p1100
sS'XR_425791'
p1101
S' PREDICTED: Homo sapiens uncharacterized LOC101927947 (LOC101927947), transcript variant X2, ncRNA'
p1102
sS'XR_425790'
p1103
S' PREDICTED: Homo sapiens uncharacterized LOC100505685 (LOC100505685), transcript variant X2, ncRNA'
p1104
sS'XR_425793'
p1105
S' PREDICTED: Homo sapiens uncharacterized LOC102724785 (LOC102724785), transcript variant X1, ncRNA'
p1106
sS'XR_425792'
p1107
S' PREDICTED: Homo sapiens uncharacterized LOC102724776 (LOC102724776), ncRNA'
p1108
sS'XR_425408'
p1109
S' PREDICTED: Homo sapiens uncharacterized LOC102724233 (LOC102724233), ncRNA'
p1110
sS'XR_425405'
p1111
S' PREDICTED: Homo sapiens uncharacterized LOC100507006 (AC074289.1), transcript variant X1, ncRNA'
p1112
sS'XR_425404'
p1113
S' PREDICTED: Homo sapiens uncharacterized LOC102724155 (LOC102724155), ncRNA'
p1114
sS'XR_425407'
p1115
S' PREDICTED: Homo sapiens uncharacterized LOC100507006 (AC074289.1), transcript variant X3, ncRNA'
p1116
sS'XR_425406'
p1117
S' PREDICTED: Homo sapiens uncharacterized LOC100507006 (AC074289.1), transcript variant X2, ncRNA'
p1118
sS'XR_425401'
p1119
S' PREDICTED: Homo sapiens uncharacterized LOC102724072 (LOC102724072), ncRNA'
p1120
sS'XR_425400'
p1121
S' PREDICTED: Homo sapiens uncharacterized LOC102724063 (LOC102724063), ncRNA'
p1122
sS'XR_425403'
p1123
S' PREDICTED: Homo sapiens uncharacterized LOC102724142 (LOC102724142), ncRNA'
p1124
sS'XR_425225'
p1125
S' PREDICTED: Homo sapiens uncharacterized LOC102724429 (LOC102724429), ncRNA'
p1126
sS'XR_425224'
p1127
S' PREDICTED: Homo sapiens uncharacterized LOC101930314 (LOC101930314), transcript variant X2, ncRNA'
p1128
sS'XR_425221'
p1129
S' PREDICTED: Homo sapiens uncharacterized LOC101929438 (RP6-206I17.2), transcript variant X11, ncRNA'
p1130
sS'XR_425220'
p1131
S' PREDICTED: Homo sapiens uncharacterized LOC101929438 (RP6-206I17.2), transcript variant X10, ncRNA'
p1132
sS'XR_425223'
p1133
S' PREDICTED: Homo sapiens uncharacterized LOC102724415 (LOC102724415), ncRNA'
p1134
sS'XR_425222'
p1135
S' PREDICTED: Homo sapiens uncharacterized LOC101929438 (RP6-206I17.2), transcript variant X12, ncRNA'
p1136
sS'XR_425139'
p1137
S' PREDICTED: Homo sapiens uncharacterized LOC102725522 (LOC102725522), ncRNA'
p1138
sS'XR_425138'
p1139
S' PREDICTED: Homo sapiens uncharacterized LOC102725413 (LOC102725413), ncRNA'
p1140
sS'XR_425131'
p1141
S' PREDICTED: Homo sapiens uncharacterized LOC101928216 (LOC101928216), transcript variant X4, ncRNA'
p1142
sS'XR_425130'
p1143
S' PREDICTED: Homo sapiens uncharacterized LOC101928189 (LOC101928189), transcript variant X2, ncRNA'
p1144
sS'XR_425133'
p1145
S' PREDICTED: Homo sapiens uncharacterized LOC101928303 (LOC101928303), transcript variant X2, ncRNA'
p1146
sS'XR_425132'
p1147
S' PREDICTED: Homo sapiens uncharacterized LOC101928216 (LOC101928216), transcript variant X5, ncRNA'
p1148
sS'XR_425135'
p1149
S' PREDICTED: Homo sapiens uncharacterized LOC102725410 (LOC102725410), transcript variant X1, ncRNA'
p1150
sS'XR_425134'
p1151
S' PREDICTED: Homo sapiens uncharacterized LOC102723760 (LOC102723760), ncRNA'
p1152
sS'XR_425137'
p1153
S' PREDICTED: Homo sapiens uncharacterized LOC102725410 (LOC102725410), transcript variant X3, ncRNA'
p1154
sS'XR_425136'
p1155
S' PREDICTED: Homo sapiens uncharacterized LOC102725410 (LOC102725410), transcript variant X2, ncRNA'
p1156
sS'XM_006710059'
p1157
S' PREDICTED: Homo sapiens myomegalin-like (LOC101060254), mRNA'
p1158
sS'XR_133296'
p1159
S' PREDICTED: Homo sapiens uncharacterized LOC100507562 (LOC100507562), ncRNA'
p1160
sS'XR_112023'
p1161
S' PREDICTED: Homo sapiens uncharacterized LOC100130249 (PP2672), misc_RNA'
p1162
sS'XR_112377'
p1163
S' PREDICTED: Homo sapiens uncharacterized LOC100506797 (LOC100506797), transcript variant X1, ncRNA'
p1164
sS'XR_112370'
p1165
S' PREDICTED: Homo sapiens hCG1732469 (LOC729164), misc_RNA'
p1166
sS'NR_103470'
p1167
S' Homo sapiens testis expressed 264 pseudogene (LOC100996349), non-coding RNA'
p1168
sS'XR_425568'
p1169
S' PREDICTED: Homo sapiens uncharacterized LOC102725280 (LOC102725280), ncRNA'
p1170
sS'NR_046102'
p1171
S' Homo sapiens uncharacterized LOC646736 (LOC646736), long non-coding RNA'
p1172
sS'XR_112571'
p1173
S' PREDICTED: Homo sapiens uncharacterized LOC100507461 (LOC100507461), ncRNA'
p1174
sS'NR_038958'
p1175
S' Homo sapiens uncharacterized LOC100507412 (LOC100507412), long non-coding RNA'
p1176
sS'NR_000026'
p1177
S' Homo sapiens RNA, U86 small nucleolar (RNU86), small nucleolar RNA'
p1178
sS'XR_248697'
p1179
S' PREDICTED: Homo sapiens uncharacterized LOC91548 (RP11-122M14.1), misc_RNA'
p1180
sS'XR_249188'
p1181
S' PREDICTED: Homo sapiens uncharacterized LOC101930489 (LOC101930489), transcript variant X1, ncRNA'
p1182
sS'XR_248692'
p1183
S' PREDICTED: Homo sapiens uncharacterized LOC101929612 (LOC101929612), ncRNA'
p1184
sS'XR_248690'
p1185
S' PREDICTED: Homo sapiens uncharacterized LOC101929666 (LOC101929666), ncRNA'
p1186
sS'XR_249184'
p1187
S' PREDICTED: Homo sapiens uncharacterized LOC101927070 (LOC101927070), transcript variant X3, ncRNA'
p1188
sS'XR_249185'
p1189
S' PREDICTED: Homo sapiens uncharacterized LOC644903 (FLJ38668), misc_RNA'
p1190
sS'XR_112482'
p1191
S' PREDICTED: Homo sapiens uncharacterized LOC100293612 (LOC100293612), misc_RNA'
p1192
sS'XR_249181'
p1193
S' PREDICTED: Homo sapiens uncharacterized LOC101927110 (LOC101927110), transcript variant X2, ncRNA'
p1194
sS'XR_249182'
p1195
S' PREDICTED: Homo sapiens uncharacterized LOC101927070 (LOC101927070), transcript variant X1, ncRNA'
p1196
sS'XR_249183'
p1197
S' PREDICTED: Homo sapiens uncharacterized LOC101927070 (LOC101927070), transcript variant X2, ncRNA'
p1198
sS'XR_249566'
p1199
S' PREDICTED: Homo sapiens uncharacterized LOC101928532 (RP11-1338A24.1), ncRNA'
p1200
sS'XR_249565'
p1201
S' PREDICTED: Homo sapiens uncharacterized LOC339988 (RP11-539L10.2), misc_RNA'
p1202
sS'XR_249563'
p1203
S' PREDICTED: Homo sapiens uncharacterized LOC101928329 (LOC101928329), ncRNA'
p1204
sS'XR_249560'
p1205
S' PREDICTED: Homo sapiens uncharacterized LOC101928237 (LOC101928237), transcript variant X1, ncRNA'
p1206
sS'XR_249568'
p1207
S' PREDICTED: Homo sapiens uncharacterized LOC101928948 (LOC101928948), transcript variant X1, ncRNA'
p1208
sS'XM_006710125'
p1209
S' PREDICTED: Homo sapiens formin-like protein 16-like (LOC101060391), mRNA'
p1210
sS'XR_249363'
p1211
S' PREDICTED: Homo sapiens uncharacterized LOC101929316 (LOC101929316), ncRNA'
p1212
sS'XR_249364'
p1213
S' PREDICTED: Homo sapiens uncharacterized LOC101930467 (LOC101930467), ncRNA'
p1214
sS'XR_249365'
p1215
S' PREDICTED: Homo sapiens uncharacterized LOC101929296 (LOC101929296), ncRNA'
p1216
sS'XR_249367'
p1217
S' PREDICTED: Homo sapiens uncharacterized LOC101929223 (LOC101929223), ncRNA'
p1218
sS'XR_248763'
p1219
S' PREDICTED: Homo sapiens uncharacterized LOC101928391 (LOC101928391), ncRNA'
p1220
sS'XR_249369'
p1221
S' PREDICTED: Homo sapiens uncharacterized LOC101929159 (LOC101929159), ncRNA'
p1222
sS'XR_248760'
p1223
S' PREDICTED: Homo sapiens uncharacterized LOC101928216 (LOC101928216), transcript variant X3, ncRNA'
p1224
sS'XR_248833'
p1225
S' PREDICTED: Homo sapiens uncharacterized LOC101927891 (RP11-76N22.2), transcript variant X1, ncRNA'
p1226
sS'XR_248832'
p1227
S' PREDICTED: Homo sapiens uncharacterized LOC101927933 (LOC101927933), ncRNA'
p1228
sS'XR_248831'
p1229
S' PREDICTED: Homo sapiens uncharacterized LOC101927975 (LOC101927975), ncRNA'
p1230
sS'XR_249419'
p1231
S' PREDICTED: Homo sapiens uncharacterized LOC101927225 (LOC101927225), ncRNA'
p1232
sS'XR_248836'
p1233
S' PREDICTED: Homo sapiens uncharacterized LOC101927871 (LOC101927871), transcript variant X1, ncRNA'
p1234
sS'XR_248834'
p1235
S' PREDICTED: Homo sapiens uncharacterized LOC101927891 (RP11-76N22.2), transcript variant X2, ncRNA'
p1236
sS'XR_248839'
p1237
S' PREDICTED: Homo sapiens uncharacterized LOC101930232 (LOC101930232), transcript variant X1, ncRNA'
p1238
sS'XR_249411'
p1239
S' PREDICTED: Homo sapiens uncharacterized LOC101927467 (LOC101927467), ncRNA'
p1240
sS'NM_001242750'
p1241
S' Homo sapiens uncharacterized LOC100129924 (LOC100129924), mRNA'
p1242
sS'NR_026929'
p1243
S' Homo sapiens uncharacterized protein DKFZp434L192 (DKFZp434L192), long non-coding RNA'
p1244
sS'XM_003846668'
p1245
S' PREDICTED: Homo sapiens double homeobox protein 4-like (LOC100996350), mRNA'
p1246
sS'XM_003846667'
p1247
S' PREDICTED: Homo sapiens putative uncharacterized protein C3orf53-like (LOC100652807), mRNA'
p1248
sS'XR_425756'
p1249
S' PREDICTED: Homo sapiens uncharacterized LOC102723807 (LOC102723807), ncRNA'
p1250
sS'NM_001077637'
p1251
S' Homo sapiens RAB6C-like (WTH3DI), mRNA'
p1252
sS'XM_003403761'
p1253
S' PREDICTED: Homo sapiens uncharacterized LOC100287387 (LOC100287387), mRNA'
p1254
sS'NM_001144931'
p1255
S' Homo sapiens D-dopachrome tautomerase-like (LOC391322), mRNA'
p1256
sS'XR_111915'
p1257
S' PREDICTED: Homo sapiens uncharacterized LOC100505824 (LOC100505824), ncRNA'
p1258
sS'XR_425788'
p1259
S' PREDICTED: Homo sapiens uncharacterized LOC102724672 (LOC102724672), transcript variant X2, ncRNA'
p1260
sS'XR_425789'
p1261
S' PREDICTED: Homo sapiens uncharacterized LOC102724700 (LOC102724700), ncRNA'
p1262
sS'XR_425786'
p1263
S' PREDICTED: Homo sapiens hCG38984 (LOC345051), transcript variant X3, misc_RNA'
p1264
sS'XR_425787'
p1265
S' PREDICTED: Homo sapiens uncharacterized LOC102724672 (LOC102724672), transcript variant X1, ncRNA'
p1266
sS'XR_425784'
p1267
S' PREDICTED: Homo sapiens uncharacterized LOC100507639 (RP11-362F19.1), transcript variant X1, ncRNA'
p1268
sS'XR_425785'
p1269
S' PREDICTED: Homo sapiens uncharacterized LOC100507639 (RP11-362F19.1), transcript variant X2, ncRNA'
p1270
sS'XR_425782'
p1271
S' PREDICTED: Homo sapiens uncharacterized LOC102724501 (LOC102724501), transcript variant X1, ncRNA'
p1272
sS'XR_425783'
p1273
S' PREDICTED: Homo sapiens uncharacterized LOC102724501 (LOC102724501), transcript variant X2, ncRNA'
p1274
sS'XR_425780'
p1275
S' PREDICTED: Homo sapiens uncharacterized LOC101927414 (LOC101927414), transcript variant X4, ncRNA'
p1276
sS'XR_425781'
p1277
S' PREDICTED: Homo sapiens uncharacterized LOC102725306 (LOC102725306), ncRNA'
p1278
sS'XR_425418'
p1279
S' PREDICTED: Homo sapiens uncharacterized LOC101928113 (LOC101928113), transcript variant X2, ncRNA'
p1280
sS'XR_425419'
p1281
S' PREDICTED: Homo sapiens uncharacterized LOC101928113 (LOC101928113), transcript variant X3, ncRNA'
p1282
sS'XR_425416'
p1283
S' PREDICTED: Homo sapiens uncharacterized LOC102724579 (LOC102724579), ncRNA'
p1284
sS'XR_425417'
p1285
S' PREDICTED: Homo sapiens all-trans-retinol 13,14-reductase-like (LOC100996506), misc_RNA'
p1286
sS'XR_425414'
p1287
S' PREDICTED: Homo sapiens uncharacterized LOC102724497 (LOC102724497), ncRNA'
p1288
sS'XR_425415'
p1289
S' PREDICTED: Homo sapiens uncharacterized LOC102724515 (LOC102724515), ncRNA'
p1290
sS'XR_425412'
p1291
S' PREDICTED: Homo sapiens uncharacterized LOC102724389 (LOC102724389), ncRNA'
p1292
sS'XR_425413'
p1293
S' PREDICTED: Homo sapiens uncharacterized LOC102724482 (LOC102724482), ncRNA'
p1294
sS'XR_425410'
p1295
S' PREDICTED: Homo sapiens uncharacterized LOC101927661 (LOC101927661), transcript variant X2, ncRNA'
p1296
sS'XR_425411'
p1297
S' PREDICTED: Homo sapiens uncharacterized LOC102724373 (LOC102724373), ncRNA'
p1298
sS'XM_005275915'
p1299
S' PREDICTED: Homo sapiens mucin-19-like (LOC100996637), mRNA'
p1300
sS'XM_005275919'
p1301
S' PREDICTED: Homo sapiens uncharacterized LOC101927402 (LOC101927402), mRNA'
p1302
sS'XM_005275918'
p1303
S' PREDICTED: Homo sapiens protein GVQW1-like (LOC101926982), partial mRNA'
p1304
sS'XR_249354'
p1305
S' PREDICTED: Homo sapiens uncharacterized LOC101929433 (LOC101929433), ncRNA'
p1306
sS'XR_425491'
p1307
S' PREDICTED: Homo sapiens uncharacterized LOC102724157 (LOC102724157), ncRNA'
p1308
sS'XR_425128'
p1309
S' PREDICTED: Homo sapiens uncharacterized LOC100996511 (RP5-1057J7.6), ncRNA'
p1310
sS'XR_425122'
p1311
S' PREDICTED: Homo sapiens uncharacterized LOC102724856 (LOC102724856), transcript variant X1, ncRNA'
p1312
sS'XR_425123'
p1313
S' PREDICTED: Homo sapiens uncharacterized LOC102724856 (LOC102724856), transcript variant X2, ncRNA'
p1314
sS'XR_425120'
p1315
S' PREDICTED: Homo sapiens uncharacterized LOC102724435 (LOC102724435), ncRNA'
p1316
sS'XR_425121'
p1317
S' PREDICTED: Homo sapiens uncharacterized LOC102724446 (LOC102724446), ncRNA'
p1318
sS'XR_425126'
p1319
S' PREDICTED: Homo sapiens uncharacterized LOC101927417 (LOC101927417), transcript variant X2, ncRNA'
p1320
sS'XR_425127'
p1321
S' PREDICTED: Homo sapiens uncharacterized LOC102723558 (LOC102723558), ncRNA'
p1322
sS'XR_425124'
p1323
S' PREDICTED: Homo sapiens uncharacterized LOC102724910 (LOC102724910), transcript variant X1, ncRNA'
p1324
sS'XR_425125'
p1325
S' PREDICTED: Homo sapiens uncharacterized LOC102724910 (LOC102724910), transcript variant X2, ncRNA'
p1326
sS'XR_112011'
p1327
S' PREDICTED: Homo sapiens uncharacterized LOC100509303 (LOC100509303), transcript variant 3, ncRNA'
p1328
sS'NR_024372'
p1329
S' Homo sapiens MAP/microtubule affinity-regulating kinase 1 pseudogene (FLJ25758), non-coding RNA'
p1330
sS'NR_024374'
p1331
S' Homo sapiens DEAD/H (Asp-Glu-Ala-Asp/His) box polypeptide 11-like (LOC642846), long non-coding RNA'
p1332
sS'NR_038891'
p1333
S' Homo sapiens uncharacterized LOC285000 (LOC285000), long non-coding RNA'
p1334
sS'NR_046285'
p1335
S' Homo sapiens uncharacterized LOC100130744 (LOC100130744), long non-coding RNA'
p1336
sS'NR_049748'
p1337
S' Homo sapiens golgin A2 pseudogene (LOC642423), non-coding RNA'
p1338
sS'NR_024440'
p1339
S' Homo sapiens uncharacterized LOC729609 (LOC729609), long non-coding RNA'
p1340
sS'XR_249087'
p1341
S' PREDICTED: Homo sapiens uncharacterized LOC101929715 (LOC101929715), ncRNA'
p1342
sS'XR_249086'
p1343
S' PREDICTED: Homo sapiens uncharacterized LOC101929691 (LOC101929691), ncRNA'
p1344
sS'XR_249083'
p1345
S' PREDICTED: Homo sapiens uncharacterized LOC101929643 (LOC101929643), ncRNA'
p1346
sS'XR_249089'
p1347
S' PREDICTED: Homo sapiens uncharacterized LOC101929752 (LOC101929752), ncRNA'
p1348
sS'XR_112596'
p1349
S' PREDICTED: Homo sapiens uncharacterized LOC100507033 (LOC100507033), ncRNA'
p1350
sS'XR_248688'
p1351
S' PREDICTED: Homo sapiens uncharacterized LOC101929713 (LOC101929713), transcript variant X1, ncRNA'
p1352
sS'XR_248689'
p1353
S' PREDICTED: Homo sapiens uncharacterized LOC101929648 (LOC101929648), ncRNA'
p1354
sS'NR_038942'
p1355
S' Homo sapiens uncharacterized LOC100630918 (LOC100630918), long non-coding RNA'
p1356
sS'XR_248684'
p1357
S' PREDICTED: Homo sapiens uncharacterized LOC101929750 (LOC101929750), ncRNA'
p1358
sS'XR_248686'
p1359
S' PREDICTED: Homo sapiens uncharacterized LOC101930644 (LOC101930644), ncRNA'
p1360
sS'XR_248687'
p1361
S' PREDICTED: Homo sapiens uncharacterized LOC101929689 (LOC101929689), ncRNA'
p1362
sS'XR_249170'
p1363
S' PREDICTED: Homo sapiens uncharacterized LOC101926959 (LOC101926959), ncRNA'
p1364
sS'XR_249175'
p1365
S' PREDICTED: Homo sapiens uncharacterized LOC101927383 (LOC101927383), ncRNA'
p1366
sS'XR_249174'
p1367
S' PREDICTED: Homo sapiens uncharacterized LOC101930523 (LOC101930523), transcript variant X1, ncRNA'
p1368
sS'XR_249177'
p1369
S' PREDICTED: Homo sapiens uncharacterized LOC101927331 (LOC101927331), ncRNA'
p1370
sS'XR_112323'
p1371
S' PREDICTED: Homo sapiens uncharacterized LOC100506235 (LOC100506235), transcript variant X2, ncRNA'
p1372
sS'XR_112327'
p1373
S' PREDICTED: Homo sapiens uncharacterized LOC100129434 (AC007743.1), transcript variant X1, misc_RNA'
p1374
sS'XR_249315'
p1375
S' PREDICTED: Homo sapiens uncharacterized LOC101928487 (LOC101928487), ncRNA'
p1376
sS'XR_249314'
p1377
S' PREDICTED: Homo sapiens uncharacterized LOC101928513 (LOC101928513), transcript variant X2, ncRNA'
p1378
sS'XR_249317'
p1379
S' PREDICTED: Homo sapiens uncharacterized LOC101928816 (LOC101928816), transcript variant X2, ncRNA'
p1380
sS'XR_249316'
p1381
S' PREDICTED: Homo sapiens uncharacterized LOC101928816 (LOC101928816), transcript variant X1, ncRNA'
p1382
sS'XR_249311'
p1383
S' PREDICTED: Homo sapiens uncharacterized LOC101928639 (LOC101928639), ncRNA'
p1384
sS'XR_249310'
p1385
S' PREDICTED: Homo sapiens uncharacterized LOC101928662 (LOC101928662), transcript variant X1, ncRNA'
p1386
sS'XR_249313'
p1387
S' PREDICTED: Homo sapiens uncharacterized LOC101928513 (LOC101928513), transcript variant X1, ncRNA'
p1388
sS'XR_248776'
p1389
S' PREDICTED: Homo sapiens uncharacterized LOC101930541 (LOC101930541), ncRNA'
p1390
sS'XR_248777'
p1391
S' PREDICTED: Homo sapiens uncharacterized LOC101929673 (LOC101929673), ncRNA'
p1392
sS'XR_248770'
p1393
S' PREDICTED: Homo sapiens uncharacterized LOC101930417 (LOC101930417), ncRNA'
p1394
sS'XR_248771'
p1395
S' PREDICTED: Homo sapiens uncharacterized LOC101929444 (LOC101929444), ncRNA'
p1396
sS'XR_248772'
p1397
S' PREDICTED: Homo sapiens uncharacterized LOC100134237 (LOC100134237), misc_RNA'
p1398
sS'XR_248773'
p1399
S' PREDICTED: Homo sapiens uncharacterized LOC400748 (LOC400748), misc_RNA'
p1400
sS'XR_248825'
p1401
S' PREDICTED: Homo sapiens uncharacterized LOC101928219 (LOC101928219), ncRNA'
p1402
sS'XR_248826'
p1403
S' PREDICTED: Homo sapiens uncharacterized LOC101928169 (LOC101928169), ncRNA'
p1404
sS'XR_248827'
p1405
S' PREDICTED: Homo sapiens uncharacterized LOC101928118 (RP11-57H12.3), transcript variant X1, ncRNA'
p1406
sS'XR_248822'
p1407
S' PREDICTED: Homo sapiens uncharacterized LOC101928270 (RP11-413P11.1), transcript variant X1, ncRNA'
p1408
sS'XR_248823'
p1409
S' PREDICTED: Homo sapiens uncharacterized LOC101928270 (RP11-413P11.1), transcript variant X2, ncRNA'
p1410
sS'NR_104654'
p1411
S' Homo sapiens uncharacterized LOC257396 (LOC257396), transcript variant 2, long non-coding RNA'
p1412
sS'XR_249425'
p1413
S' PREDICTED: Homo sapiens uncharacterized LOC101927346 (LOC101927346), ncRNA'
p1414
sS'XR_249424'
p1415
S' PREDICTED: Homo sapiens uncharacterized LOC101927321 (LOC101927321), ncRNA'
p1416
sS'XR_248828'
p1417
S' PREDICTED: Homo sapiens uncharacterized LOC101928098 (LOC101928098), ncRNA'
p1418
sS'NR_104652'
p1419
S' Homo sapiens uncharacterized LOC100506790 (LOC100506790), long non-coding RNA'
p1420
sS'NR_040013'
p1421
S' Homo sapiens uncharacterized LOC644554 (LOC644554), long non-coding RNA'
p1422
sS'XR_112694'
p1423
S' PREDICTED: Homo sapiens uncharacterized LOC100505685 (LOC100505685), transcript variant X1, ncRNA'
p1424
sS'XR_425632'
p1425
S' PREDICTED: Homo sapiens uncharacterized LOC101926983 (LOC101926983), transcript variant X2, ncRNA'
p1426
sS'XR_249558'
p1427
S' PREDICTED: Homo sapiens uncharacterized LOC101928676 (LOC101928676), ncRNA'
p1428
sS'XR_425145'
p1429
S' PREDICTED: Homo sapiens uncharacterized LOC102724077 (LOC102724077), ncRNA'
p1430
sS'XR_249553'
p1431
S' PREDICTED: Homo sapiens uncharacterized LOC101926923 (LOC101926923), ncRNA'
p1432
sS'XR_249557'
p1433
S' PREDICTED: Homo sapiens uncharacterized LOC101928588 (LOC101928588), ncRNA'
p1434
sS'XR_249556'
p1435
S' PREDICTED: Homo sapiens uncharacterized LOC101930638 (LOC101930638), ncRNA'
p1436
sS'XR_249555'
p1437
S' PREDICTED: Homo sapiens uncharacterized LOC101928521 (RP11-1191J2.2), ncRNA'
p1438
sS'XR_425147'
p1439
S' PREDICTED: Homo sapiens uncharacterized LOC102724033 (LOC102724033), ncRNA'
p1440
sS'XR_425140'
p1441
S' PREDICTED: Homo sapiens uncharacterized LOC101929901 (LOC101929901), transcript variant X1, ncRNA'
p1442
sS'XR_425141'
p1443
S' PREDICTED: Homo sapiens uncharacterized LOC101929901 (LOC101929901), transcript variant X2, ncRNA'
p1444
sS'XR_425142'
p1445
S' PREDICTED: Homo sapiens uncharacterized LOC102723924 (LOC102723924), transcript variant X1, ncRNA'
p1446
sS'XR_425143'
p1447
S' PREDICTED: Homo sapiens uncharacterized LOC102723924 (LOC102723924), transcript variant X2, ncRNA'
p1448
sS'NR_003580'
p1449
S' Homo sapiens general transcription factor II, i, pseudogene (LOC100093631), non-coding RNA'
p1450
sS'XM_003403755'
p1451
S' PREDICTED: Homo sapiens putative aquaporin-7-like protein 3-like (LOC100509620), transcript variant X2, mRNA'
p1452
sS'XR_425423'
p1453
S' PREDICTED: Homo sapiens uncharacterized LOC102725435 (LOC102725435), ncRNA'
p1454
sS'XR_425422'
p1455
S' PREDICTED: Homo sapiens uncharacterized LOC102724332 (LOC102724332), ncRNA'
p1456
sS'XR_425421'
p1457
S' PREDICTED: Homo sapiens uncharacterized LOC101928427 (LOC101928427), transcript variant X2, ncRNA'
p1458
sS'XR_425420'
p1459
S' PREDICTED: Homo sapiens uncharacterized LOC102724805 (LOC102724805), ncRNA'
p1460
sS'XR_425427'
p1461
S' PREDICTED: Homo sapiens putative aquaporin-7-like protein 3-like (LOC100509620), transcript variant X11, misc_RNA'
p1462
sS'XR_425426'
p1463
S' PREDICTED: Homo sapiens putative aquaporin-7-like protein 3-like (LOC100509620), transcript variant X10, misc_RNA'
p1464
sS'XR_425425'
p1465
S' PREDICTED: Homo sapiens putative aquaporin-7-like protein 3-like (LOC100509620), transcript variant X9, misc_RNA'
p1466
sS'XR_425424'
p1467
S' PREDICTED: Homo sapiens uncharacterized LOC102725526 (LOC102725526), ncRNA'
p1468
sS'XR_425429'
p1469
S' PREDICTED: Homo sapiens putative aquaporin-7-like protein 3-like (LOC100509620), transcript variant X13, misc_RNA'
p1470
sS'XR_425428'
p1471
S' PREDICTED: Homo sapiens putative aquaporin-7-like protein 3-like (LOC100509620), transcript variant X12, misc_RNA'
p1472
sS'XR_425759'
p1473
S' PREDICTED: Homo sapiens uncharacterized LOC102723896 (LOC102723896), ncRNA'
p1474
sS'XR_425758'
p1475
S' PREDICTED: Homo sapiens uncharacterized LOC102723880 (LOC102723880), ncRNA'
p1476
sS'XR_425209'
p1477
S' PREDICTED: Homo sapiens uncharacterized LOC101928066 (LOC101928066), transcript variant X2, ncRNA'
p1478
sS'XR_425208'
p1479
S' PREDICTED: Homo sapiens uncharacterized LOC101929023 (RP4-655J12.4), transcript variant X4, ncRNA'
p1480
sS'XM_006710132'
p1481
S' PREDICTED: Homo sapiens putative aquaporin-7-like protein 3-like (LOC100509620), transcript variant X7, mRNA'
p1482
sS'XM_006710133'
p1483
S' PREDICTED: Homo sapiens putative aquaporin-7-like protein 3-like (LOC100509620), transcript variant X8, mRNA'
p1484
sS'XM_006710130'
p1485
S' PREDICTED: Homo sapiens putative aquaporin-7-like protein 3-like (LOC100509620), transcript variant X5, mRNA'
p1486
sS'XM_006710131'
p1487
S' PREDICTED: Homo sapiens putative aquaporin-7-like protein 3-like (LOC100509620), transcript variant X6, mRNA'
p1488
sS'XR_425203'
p1489
S' PREDICTED: Homo sapiens uncharacterized LOC101928822 (RP5-1073O3.2), transcript variant X1, ncRNA'
p1490
sS'XR_425202'
p1491
S' PREDICTED: Homo sapiens uncharacterized LOC101930375 (LOC101930375), transcript variant X2, ncRNA'
p1492
sS'XR_425201'
p1493
S' PREDICTED: Homo sapiens uncharacterized LOC102725338 (LOC102725338), ncRNA'
p1494
sS'XR_425200'
p1495
S' PREDICTED: Homo sapiens uncharacterized LOC101927773 (LOC101927773), transcript variant X3, ncRNA'
p1496
sS'XR_425207'
p1497
S' PREDICTED: Homo sapiens uncharacterized LOC101929023 (RP4-655J12.4), transcript variant X3, ncRNA'
p1498
sS'XR_425206'
p1499
S' PREDICTED: Homo sapiens uncharacterized LOC101929023 (RP4-655J12.4), transcript variant X2, ncRNA'
p1500
sS'XR_425205'
p1501
S' PREDICTED: Homo sapiens uncharacterized LOC101928977 (LOC101928977), transcript variant X2, ncRNA'
p1502
sS'XR_425204'
p1503
S' PREDICTED: Homo sapiens uncharacterized LOC101928822 (RP5-1073O3.2), transcript variant X2, ncRNA'
p1504
sS'XM_005275960'
p1505
S' PREDICTED: Homo sapiens uncharacterized LOC101927276 (LOC101927276), mRNA'
p1506
sS'XM_005275961'
p1507
S' PREDICTED: Homo sapiens COMM domain-containing protein 5-like (LOC101928879), mRNA'
p1508
sS'XM_005275962'
p1509
S' PREDICTED: Homo sapiens centrosomal protein of 170 kDa-like (LOC101930464), mRNA'
p1510
sS'XM_005275963'
p1511
S' PREDICTED: Homo sapiens 5E5 antigen-like (LOC101927681), mRNA'
p1512
sS'NR_027086'
p1513
S' Homo sapiens uncharacterized LOC284578 (LOC284578), long non-coding RNA'
p1514
sS'XR_249622'
p1515
S' PREDICTED: Homo sapiens uncharacterized LOC101929118 (RP11-10L7.1), ncRNA'
p1516
sS'NR_037869'
p1517
S' Homo sapiens uncharacterized LOC653160 (LOC653160), long non-coding RNA'
p1518
sS'XR_425687'
p1519
S' PREDICTED: Homo sapiens uncharacterized LOC102725403 (LOC102725403), ncRNA'
p1520
sS'XR_425686'
p1521
S' PREDICTED: Homo sapiens uncharacterized LOC102725400 (LOC102725400), ncRNA'
p1522
sS'XR_425685'
p1523
S' PREDICTED: Homo sapiens uncharacterized LOC101927568 (LOC101927568), transcript variant X2, ncRNA'
p1524
sS'XR_425684'
p1525
S' PREDICTED: Homo sapiens uncharacterized LOC102724019 (LOC102724019), transcript variant X2, ncRNA'
p1526
sS'XR_425683'
p1527
S' PREDICTED: Homo sapiens uncharacterized LOC102724019 (LOC102724019), transcript variant X1, ncRNA'
p1528
sS'XR_425682'
p1529
S' PREDICTED: Homo sapiens uncharacterized LOC102725374 (LOC102725374), ncRNA'
p1530
sS'XR_425681'
p1531
S' PREDICTED: Homo sapiens uncharacterized LOC102724040 (LOC102724040), ncRNA'
p1532
sS'XR_425680'
p1533
S' PREDICTED: Homo sapiens uncharacterized LOC100507291 (RP11-319G6.1), transcript variant X6, ncRNA'
p1534
sS'XM_006710138'
p1535
S' PREDICTED: Homo sapiens uncharacterized LOC102725293 (LOC102725293), mRNA'
p1536
sS'XR_425689'
p1537
S' PREDICTED: Homo sapiens uncharacterized LOC102725508 (LOC102725508), ncRNA'
p1538
sS'XR_425688'
p1539
S' PREDICTED: Homo sapiens uncharacterized LOC102723877 (LOC102723877), ncRNA'
p1540
sS'XR_425119'
p1541
S' PREDICTED: Homo sapiens uncharacterized LOC102724425 (LOC102724425), ncRNA'
p1542
sS'XR_425118'
p1543
S' PREDICTED: Homo sapiens uncharacterized LOC102724382 (LOC102724382), ncRNA'
p1544
sS'XR_425117'
p1545
S' PREDICTED: Homo sapiens uncharacterized LOC102724256 (LOC102724256), ncRNA'
p1546
sS'XR_425116'
p1547
S' PREDICTED: Homo sapiens uncharacterized LOC100506929 (LOC100506929), transcript variant X4, ncRNA'
p1548
sS'XR_425115'
p1549
S' PREDICTED: Homo sapiens uncharacterized LOC102724174 (LOC102724174), ncRNA'
p1550
sS'XR_425114'
p1551
S' PREDICTED: Homo sapiens uncharacterized LOC102724100 (LOC102724100), ncRNA'
p1552
sS'XR_425113'
p1553
S' PREDICTED: Homo sapiens uncharacterized LOC102724041 (LOC102724041), ncRNA'
p1554
sS'XR_425112'
p1555
S' PREDICTED: Homo sapiens uncharacterized LOC102724026 (LOC102724026), ncRNA'
p1556
sS'XR_425110'
p1557
S' PREDICTED: Homo sapiens uncharacterized LOC101927504 (LOC101927504), transcript variant X2, ncRNA'
p1558
sS'NM_001195272'
p1559
S' Homo sapiens testis expressed sequence 13-like (LOC100129520), mRNA'
p1560
sS'XR_249096'
p1561
S' PREDICTED: Homo sapiens uncharacterized LOC101928196 (LOC101928196), ncRNA'
p1562
sS'XR_249094'
p1563
S' PREDICTED: Homo sapiens uncharacterized LOC101928271 (LOC101928271), ncRNA'
p1564
sS'XR_249092'
p1565
S' PREDICTED: Homo sapiens uncharacterized LOC101926952 (LOC101926952), ncRNA'
p1566
sS'XR_249098'
p1567
S' PREDICTED: Homo sapiens uncharacterized LOC101928129 (LOC101928129), ncRNA'
p1568
sS'XR_249099'
p1569
S' PREDICTED: Homo sapiens uncharacterized LOC101929195 (LOC101929195), ncRNA'
p1570
sS'NR_038935'
p1571
S' Homo sapiens uncharacterized LOC100288846 (LOC100288846), long non-coding RNA'
p1572
sS'XR_249161'
p1573
S' PREDICTED: Homo sapiens uncharacterized LOC101928113 (LOC101928113), transcript variant X1, ncRNA'
p1574
sS'XR_249166'
p1575
S' PREDICTED: Homo sapiens uncharacterized LOC101928403 (LOC101928403), ncRNA'
p1576
sS'XR_249167'
p1577
S' PREDICTED: Homo sapiens uncharacterized LOC101928427 (LOC101928427), transcript variant X1, ncRNA'
p1578
sS'XR_249164'
p1579
S' PREDICTED: Homo sapiens uncharacterized LOC101928347 (LOC101928347), ncRNA'
p1580
sS'XR_249169'
p1581
S' PREDICTED: Homo sapiens uncharacterized LOC101926937 (LOC101926937), ncRNA'
p1582
sS'NR_024237'
p1583
S' Homo sapiens uncharacterized LOC100132111 (LOC100132111), long non-coding RNA'
p1584
sS'XR_248781'
p1585
S' PREDICTED: Homo sapiens uncharacterized LOC101929609 (LOC101929609), ncRNA'
p1586
sS'XM_003119906'
p1587
S' PREDICTED: Homo sapiens protein FAM136A-like (LOC100287852), mRNA'
p1588
sS'XR_249306'
p1589
S' PREDICTED: Homo sapiens uncharacterized LOC101928327 (LOC101928327), transcript variant X3, ncRNA'
p1590
sS'XR_249304'
p1591
S' PREDICTED: Homo sapiens uncharacterized LOC101928327 (LOC101928327), transcript variant X1, ncRNA'
p1592
sS'XR_249305'
p1593
S' PREDICTED: Homo sapiens uncharacterized LOC101928327 (LOC101928327), transcript variant X2, ncRNA'
p1594
sS'XR_248785'
p1595
S' PREDICTED: Homo sapiens uncharacterized LOC101927458 (LOC101927458), transcript variant X1, ncRNA'
p1596
sS'XR_249301'
p1597
S' PREDICTED: Homo sapiens uncharacterized LOC101928250 (LOC101928250), ncRNA'
p1598
sS'NR_024523'
p1599
S' Homo sapiens cyclin Y-like 1 pseudogene (LOC641367), non-coding RNA'
p1600
sS'XR_249302'
p1601
S' PREDICTED: Homo sapiens uncharacterized LOC101928278 (LOC101928278), ncRNA'
p1602
sS'XR_249308'
p1603
S' PREDICTED: Homo sapiens uncharacterized LOC101928374 (LOC101928374), transcript variant X1, ncRNA'
p1604
sS'XR_249432'
p1605
S' PREDICTED: Homo sapiens uncharacterized LOC101927494 (LOC101927494), ncRNA'
p1606
sS'XR_249433'
p1607
S' PREDICTED: Homo sapiens uncharacterized LOC101927518 (LOC101927518), transcript variant X1, ncRNA'
p1608
sS'XR_249434'
p1609
S' PREDICTED: Homo sapiens uncharacterized LOC101927518 (LOC101927518), transcript variant X2, ncRNA'
p1610
sS'XR_249435'
p1611
S' PREDICTED: Homo sapiens uncharacterized LOC101929320 (LOC101929320), ncRNA'
p1612
sS'XR_249436'
p1613
S' PREDICTED: Homo sapiens uncharacterized LOC101929298 (LOC101929298), transcript variant X1, ncRNA'
p1614
sS'XR_249437'
p1615
S' PREDICTED: Homo sapiens uncharacterized LOC101929278 (LOC101929278), ncRNA'
p1616
sS'XR_249438'
p1617
S' PREDICTED: Homo sapiens uncharacterized LOC101930453 (LOC101930453), ncRNA'
p1618
sS'XR_249439'
p1619
S' PREDICTED: Homo sapiens uncharacterized LOC101926968 (LOC101926968), ncRNA'
p1620
sS'XR_248786'
p1621
S' PREDICTED: Homo sapiens uncharacterized LOC101927458 (LOC101927458), transcript variant X2, ncRNA'
p1622
sS'XR_249238'
p1623
S' PREDICTED: Homo sapiens uncharacterized LOC101929633 (LOC101929633), transcript variant X1, ncRNA'
p1624
sS'NR_026900'
p1625
S' Homo sapiens uncharacterized protein FLJ23867 (FLJ23867), long non-coding RNA'
p1626
sS'XR_249549'
p1627
S' PREDICTED: Homo sapiens uncharacterized LOC101929697 (LOC101929697), ncRNA'
p1628
sS'XR_249544'
p1629
S' PREDICTED: Homo sapiens uncharacterized LOC101927338 (LOC101927338), ncRNA'
p1630
sS'XR_249233'
p1631
S' PREDICTED: Homo sapiens uncharacterized LOC101929512 (LOC101929512), ncRNA'
p1632
sS'XR_249546'
p1633
S' PREDICTED: Homo sapiens intraflagellar transport protein 122 homolog (LOC101927266), transcript variant X2, misc_RNA'
p1634
sS'XR_249547'
p1635
S' PREDICTED: Homo sapiens uncharacterized LOC401098 (LOC401098), misc_RNA'
p1636
sS'XR_249540'
p1637
S' PREDICTED: Homo sapiens uncharacterized LOC101927432 (LOC101927432), ncRNA'
p1638
sS'XR_249237'
p1639
S' PREDICTED: Homo sapiens uncharacterized LOC101929615 (LOC101929615), ncRNA'
p1640
sS'NR_027471'
p1641
S' Homo sapiens uncharacterized LOC440173 (LOC440173), long non-coding RNA'
p1642
sS'NR_038454'
p1643
S' Homo sapiens phosphoribosyl pyrophosphate synthetase 2 pseudogene (LOC100130673), non-coding RNA'
p1644
sS'XR_425434'
p1645
S' PREDICTED: Homo sapiens putative aquaporin-7-like protein 3-like (LOC100509620), transcript variant X18, misc_RNA'
p1646
sS'NR_033971'
p1647
S' Homo sapiens uncharacterized LOC440034 (DKFZp686K1684), long non-coding RNA'
p1648
sS'NR_033797'
p1649
S' Homo sapiens uncharacterized protein DKFZP434I0714 (DKFZP434I0714), long non-coding RNA'
p1650
sS'XR_425430'
p1651
S' PREDICTED: Homo sapiens putative aquaporin-7-like protein 3-like (LOC100509620), transcript variant X14, misc_RNA'
p1652
sS'XR_425431'
p1653
S' PREDICTED: Homo sapiens putative aquaporin-7-like protein 3-like (LOC100509620), transcript variant X15, misc_RNA'
p1654
sS'XR_425432'
p1655
S' PREDICTED: Homo sapiens putative aquaporin-7-like protein 3-like (LOC100509620), transcript variant X16, misc_RNA'
p1656
sS'XR_425433'
p1657
S' PREDICTED: Homo sapiens putative aquaporin-7-like protein 3-like (LOC100509620), transcript variant X17, misc_RNA'
p1658
sS'XR_425438'
p1659
S' PREDICTED: Homo sapiens uncharacterized LOC100506473 (LOC100506473), transcript variant X2, ncRNA'
p1660
sS'XR_425748'
p1661
S' PREDICTED: Homo sapiens uncharacterized LOC102723404 (LOC102723404), transcript variant X3, ncRNA'
p1662
sS'XR_425749'
p1663
S' PREDICTED: Homo sapiens uncharacterized LOC102723458 (LOC102723458), ncRNA'
p1664
sS'XR_425218'
p1665
S' PREDICTED: Homo sapiens uncharacterized LOC101929438 (RP6-206I17.2), transcript variant X8, ncRNA'
p1666
sS'XR_425219'
p1667
S' PREDICTED: Homo sapiens uncharacterized LOC101929438 (RP6-206I17.2), transcript variant X9, ncRNA'
p1668
sS'XM_006710127'
p1669
S' PREDICTED: Homo sapiens collagen alpha-2(I) chain-like (LOC102724965), mRNA'
p1670
sS'XM_006710126'
p1671
S' PREDICTED: Homo sapiens uncharacterized LOC102724141 (LOC102724141), mRNA'
p1672
sS'XM_006710129'
p1673
S' PREDICTED: Homo sapiens putative aquaporin-7-like protein 3-like (LOC100509620), transcript variant X4, mRNA'
p1674
sS'XM_006710128'
p1675
S' PREDICTED: Homo sapiens uncharacterized LOC102725453 (LOC102725453), mRNA'
p1676
sS'XR_425740'
p1677
S' PREDICTED: Homo sapiens uncharacterized LOC102724821 (LOC102724821), ncRNA'
p1678
sS'XR_425741'
p1679
S' PREDICTED: Homo sapiens uncharacterized LOC102724832 (LOC102724832), transcript variant X1, ncRNA'
p1680
sS'XR_425210'
p1681
S' PREDICTED: Homo sapiens uncharacterized LOC102724893 (LOC102724893), ncRNA'
p1682
sS'XR_425211'
p1683
S' PREDICTED: Homo sapiens uncharacterized LOC101929438 (RP6-206I17.2), transcript variant X1, ncRNA'
p1684
sS'XR_425212'
p1685
S' PREDICTED: Homo sapiens uncharacterized LOC101929438 (RP6-206I17.2), transcript variant X2, ncRNA'
p1686
sS'XR_425213'
p1687
S' PREDICTED: Homo sapiens uncharacterized LOC101929438 (RP6-206I17.2), transcript variant X3, ncRNA'
p1688
sS'NR_036504'
p1689
S' Homo sapiens uncharacterized LOC728752 (LOC728752), long non-coding RNA'
p1690
sS'NR_036505'
p1691
S' Homo sapiens uncharacterized LOC100128361 (LOC100128361), long non-coding RNA'
p1692
sS'XR_425698'
p1693
S' PREDICTED: Homo sapiens uncharacterized LOC102725350 (LOC102725350), ncRNA'
p1694
sS'XR_425699'
p1695
S' PREDICTED: Homo sapiens uncharacterized LOC102724043 (LOC102724043), misc_RNA'
p1696
sS'XR_425690'
p1697
S' PREDICTED: Homo sapiens uncharacterized LOC102725383 (LOC102725383), transcript variant X1, ncRNA'
p1698
sS'XR_425691'
p1699
S' PREDICTED: Homo sapiens uncharacterized LOC102725383 (LOC102725383), transcript variant X2, ncRNA'
p1700
sS'XR_425692'
p1701
S' PREDICTED: Homo sapiens uncharacterized LOC102725383 (LOC102725383), transcript variant X3, ncRNA'
p1702
sS'XR_425693'
p1703
S' PREDICTED: Homo sapiens uncharacterized LOC102723473 (LOC102723473), transcript variant X1, ncRNA'
p1704
sS'XR_425694'
p1705
S' PREDICTED: Homo sapiens uncharacterized LOC102723473 (LOC102723473), transcript variant X2, ncRNA'
p1706
sS'XR_425695'
p1707
S' PREDICTED: Homo sapiens uncharacterized LOC102723473 (LOC102723473), transcript variant X3, ncRNA'
p1708
sS'XR_425697'
p1709
S' PREDICTED: Homo sapiens uncharacterized LOC102723589 (LOC102723589), ncRNA'
p1710
sS'XR_425100'
p1711
S' PREDICTED: Homo sapiens uncharacterized LOC101929385 (LOC101929385), transcript variant X6, ncRNA'
p1712
sS'XR_425101'
p1713
S' PREDICTED: Homo sapiens uncharacterized LOC102724046 (LOC102724046), ncRNA'
p1714
sS'XR_425102'
p1715
S' PREDICTED: Homo sapiens uncharacterized LOC101927247 (LOC101927247), transcript variant X2, ncRNA'
p1716
sS'XR_425103'
p1717
S' PREDICTED: Homo sapiens uncharacterized LOC102723834 (LOC102723834), ncRNA'
p1718
sS'XR_425104'
p1719
S' PREDICTED: Homo sapiens uncharacterized LOC102723817 (LOC102723817), ncRNA'
p1720
sS'XR_425105'
p1721
S' PREDICTED: Homo sapiens F-box only protein 25-like (LOC101060626), transcript variant X1, misc_RNA'
p1722
sS'XR_425106'
p1723
S' PREDICTED: Homo sapiens F-box only protein 25-like (LOC101060626), transcript variant X2, misc_RNA'
p1724
sS'XR_425107'
p1725
S' PREDICTED: Homo sapiens helicase SRCAP-like (LOC101930466), misc_RNA'
p1726
sS'XR_425108'
p1727
S' PREDICTED: Homo sapiens uncharacterized LOC102723935 (LOC102723935), ncRNA'
p1728
sS'XR_425109'
p1729
S' PREDICTED: Homo sapiens uncharacterized LOC101927478 (RP4-613A2.1), transcript variant X2, ncRNA'
p1730
sS'NR_103770'
p1731
S' Homo sapiens uncharacterized LOC100287728 (LOC100287728), long non-coding RNA'
p1732
sS'NR_026901'
p1733
S' Homo sapiens mitogen-activated protein kinase 8 interacting protein 1 pseudogene (LOC644172), non-coding RNA'
p1734
sS'XM_005275951'
p1735
S' PREDICTED: Homo sapiens intraflagellar transport protein 122 homolog (LOC101927266), transcript variant X1, mRNA'
p1736
sS'XR_249239'
p1737
S' PREDICTED: Homo sapiens uncharacterized LOC101929633 (LOC101929633), transcript variant X2, ncRNA'
p1738
sS'XR_112616'
p1739
S' PREDICTED: Homo sapiens uncharacterized LOC389199 (LOC389199), misc_RNA'
p1740
sS'XR_249117'
p1741
S' PREDICTED: Homo sapiens uncharacterized LOC101929667 (LOC101929667), transcript variant X3, ncRNA'
p1742
sS'XR_112294'
p1743
S' PREDICTED: Homo sapiens uncharacterized LOC100506405 (LOC100506405), transcript variant 1, ncRNA'
p1744
sS'XR_249541'
p1745
S' PREDICTED: Homo sapiens uncharacterized LOC101927409 (LOC101927409), ncRNA'
p1746
sS'XR_112106'
p1747
S' PREDICTED: Homo sapiens uncharacterized LOC284561 (LOC284561), misc_RNA'
p1748
sS'NR_106788'
p1749
S' Homo sapiens microRNA mir-6730 (MIR6730), microRNA'
p1750
sS'NR_036611'
p1751
S' Homo sapiens serine/arginine-rich splicing factor 3 pseudogene (LOC100500773), non-coding RNA'
p1752
sS'NR_046240'
p1753
S' Homo sapiens uncharacterized LOC100506100 (LOC100506100), long non-coding RNA'
p1754
sS'XR_249151'
p1755
S' PREDICTED: Homo sapiens uncharacterized LOC101927861 (LOC101927861), ncRNA'
p1756
sS'XR_249150'
p1757
S' PREDICTED: Homo sapiens uncharacterized LOC101927826 (LOC101927826), transcript variant X2, ncRNA'
p1758
sS'NR_004846'
p1759
S' Homo sapiens uncharacterized LOC100134868 (LOC100134868), long non-coding RNA'
p1760
sS'XR_249159'
p1761
S' PREDICTED: Homo sapiens uncharacterized LOC101928082 (LOC101928082), transcript variant X1, ncRNA'
p1762
sS'XR_249158'
p1763
S' PREDICTED: Homo sapiens uncharacterized LOC101928031 (LOC101928031), ncRNA'
p1764
sS'XR_425753'
p1765
S' PREDICTED: Homo sapiens uncharacterized LOC101929448 (RP11-328K4.1), transcript variant X2, ncRNA'
p1766
sS'XR_112436'
p1767
S' PREDICTED: Homo sapiens uncharacterized LOC100507554 (LOC100507554), transcript variant X1, ncRNA'
p1768
sS'XR_249333'
p1769
S' PREDICTED: Homo sapiens uncharacterized LOC285095 (LOC285095), transcript variant X2, misc_RNA'
p1770
sS'XR_249332'
p1771
S' PREDICTED: Homo sapiens uncharacterized LOC101927206 (LOC101927206), transcript variant X1, ncRNA'
p1772
sS'XR_249334'
p1773
S' PREDICTED: Homo sapiens uncharacterized LOC285095 (LOC285095), transcript variant X3, misc_RNA'
p1774
sS'XR_248798'
p1775
S' PREDICTED: Homo sapiens uncharacterized LOC101927065 (LOC101927065), ncRNA'
p1776
sS'XR_248799'
p1777
S' PREDICTED: Homo sapiens uncharacterized LOC101927034 (RP11-24J23.2), transcript variant X1, ncRNA'
p1778
sS'XR_249445'
p1779
S' PREDICTED: Homo sapiens uncharacterized LOC101929734 (LOC101929734), ncRNA'
p1780
sS'XR_249444'
p1781
S' PREDICTED: Homo sapiens uncharacterized LOC101929754 (LOC101929754), ncRNA'
p1782
sS'XR_249440'
p1783
S' PREDICTED: Homo sapiens uncharacterized LOC101926953 (LOC101926953), ncRNA'
p1784
sS'XR_249443'
p1785
S' PREDICTED: Homo sapiens uncharacterized LOC101926886 (LOC101926886), ncRNA'
p1786
sS'NR_104630'
p1787
S' Homo sapiens uncharacterized LOC100506406 (LOC100506406), long non-coding RNA'
p1788
sS'NR_026914'
p1789
S' Homo sapiens uncharacterized protein MGC16275 (MGC16275), long non-coding RNA'
p1790
sS'XR_249208'
p1791
S' PREDICTED: Homo sapiens uncharacterized LOC101928526 (LOC101928526), ncRNA'
p1792
sS'XR_249207'
p1793
S' PREDICTED: Homo sapiens uncharacterized LOC101928553 (LOC101928553), ncRNA'
p1794
sS'NR_037665'
p1795
S' Homo sapiens uncharacterized LOC100506548 (LOC100506548), long non-coding RNA'
p1796
sS'XR_159407'
p1797
S' PREDICTED: Homo sapiens uncharacterized LOC100996624 (LOC100996624), ncRNA'
p1798
sS'XR_159406'
p1799
S' PREDICTED: Homo sapiens uncharacterized LOC100506319 (LOC100506319), transcript variant 2, ncRNA'
p1800
sS'XR_159402'
p1801
S' PREDICTED: Homo sapiens uncharacterized LOC100996542 (LOC100996542), ncRNA'
p1802
sS'NR_002144'
p1803
S' Homo sapiens mitogen-activated protein kinase kinase 2 pseudogene (LOC407835), non-coding RNA'
p1804
sS'XR_425599'
p1805
S' PREDICTED: Homo sapiens uncharacterized LOC102725432 (LOC102725432), ncRNA'
p1806
sS'XR_425593'
p1807
S' PREDICTED: Homo sapiens uncharacterized LOC101927777 (LOC101927777), transcript variant X3, ncRNA'
p1808
sS'XR_425592'
p1809
S' PREDICTED: Homo sapiens uncharacterized LOC101927777 (LOC101927777), transcript variant X2, ncRNA'
p1810
sS'XR_425591'
p1811
S' PREDICTED: Homo sapiens uncharacterized LOC102725380 (LOC102725380), ncRNA'
p1812
sS'XR_425590'
p1813
S' PREDICTED: Homo sapiens uncharacterized LOC101927854 (LOC101927854), transcript variant X3, ncRNA'
p1814
sS'XR_425597'
p1815
S' PREDICTED: Homo sapiens uncharacterized LOC102725419 (LOC102725419), ncRNA'
p1816
sS'XR_425596'
p1817
S' PREDICTED: Homo sapiens uncharacterized LOC101927674 (LOC101927674), transcript variant X5, ncRNA'
p1818
sS'XR_425595'
p1819
S' PREDICTED: Homo sapiens homeobox protein cut-like 1-like (LOC101929587), transcript variant X2, misc_RNA'
p1820
sS'XR_425594'
p1821
S' PREDICTED: Homo sapiens uncharacterized LOC101927805 (LOC101927805), ncRNA'
p1822
sS'NR_027313'
p1823
S' Homo sapiens uncharacterized LOC150527 (TISP43), transcript variant 1, non-coding RNA'
p1824
sS'NR_027314'
p1825
S' Homo sapiens uncharacterized LOC150527 (TISP43), transcript variant 2, non-coding RNA'
p1826
sS'NR_110415'
p1827
S' Homo sapiens uncharacterized LOC101927178 (LOC101927178), long non-coding RNA'
p1828
sS'NR_110412'
p1829
S' Homo sapiens uncharacterized LOC101928627 (RP11-87M18.2), long non-coding RNA'
p1830
sS'NR_033909'
p1831
S' Homo sapiens ribonuclease, RNase A family, 2 (liver, eosinophil-derived neurotoxin) pseudogene (ECRP), non-coding RNA'
p1832
sS'XR_425779'
p1833
S' PREDICTED: Homo sapiens uncharacterized LOC101927414 (LOC101927414), transcript variant X3, ncRNA'
p1834
sS'XR_425778'
p1835
S' PREDICTED: Homo sapiens uncharacterized LOC101927305 (RP11-614F17.2), transcript variant X2, ncRNA'
p1836
sS'XR_425777'
p1837
S' PREDICTED: Homo sapiens uncharacterized LOC101927305 (RP11-614F17.2), transcript variant X1, ncRNA'
p1838
sS'XR_425776'
p1839
S' PREDICTED: Homo sapiens uncharacterized LOC102724353 (LOC102724353), ncRNA'
p1840
sS'XR_425775'
p1841
S' PREDICTED: Homo sapiens uncharacterized LOC102724326 (LOC102724326), ncRNA'
p1842
sS'XR_425774'
p1843
S' PREDICTED: Homo sapiens uncharacterized LOC102724309 (LOC102724309), ncRNA'
p1844
sS'XR_425773'
p1845
S' PREDICTED: Homo sapiens uncharacterized LOC100507487 (LOC100507487), transcript variant X3, ncRNA'
p1846
sS'XR_425772'
p1847
S' PREDICTED: Homo sapiens uncharacterized LOC102724210 (LOC102724210), ncRNA'
p1848
sS'XM_005275940'
p1849
S' PREDICTED: Homo sapiens uncharacterized LOC285095 (LOC285095), transcript variant X1, mRNA'
p1850
sS'XM_005275941'
p1851
S' PREDICTED: Homo sapiens uncharacterized LOC100509490 (LOC100509490), mRNA'
p1852
sS'NR_036530'
p1853
S' Homo sapiens uncharacterized LOC100289230 (LOC100289230), long non-coding RNA'
p1854
sS'NR_036539'
p1855
S' Homo sapiens uncharacterized LOC644656 (LOC644656), long non-coding RNA'
p1856
sS'XR_425359'
p1857
S' PREDICTED: Homo sapiens uncharacterized LOC100506317 (LOC100506317), transcript variant X2, ncRNA'
p1858
sS'XR_425358'
p1859
S' PREDICTED: Homo sapiens uncharacterized LOC102723909 (LOC102723909), ncRNA'
p1860
sS'XR_425355'
p1861
S' PREDICTED: Homo sapiens uncharacterized LOC100506014 (LOC100506014), transcript variant X2, ncRNA'
p1862
sS'XR_425354'
p1863
S' PREDICTED: Homo sapiens hepatitis A virus cellular receptor 1-like (LOC101927493), misc_RNA'
p1864
sS'XR_425356'
p1865
S' PREDICTED: Homo sapiens uncharacterized LOC100506014 (LOC100506014), transcript variant X3, ncRNA'
p1866
sS'XR_425353'
p1867
S' PREDICTED: Homo sapiens uncharacterized LOC102723730 (LOC102723730), ncRNA'
p1868
sS'XR_425352'
p1869
S' PREDICTED: Homo sapiens uncharacterized LOC102723717 (LOC102723717), ncRNA'
p1870
sS'XR_133304'
p1871
S' PREDICTED: Homo sapiens uncharacterized LOC100506036 (LOC100506036), ncRNA'
p1872
sS'XR_133305'
p1873
S' PREDICTED: Homo sapiens uncharacterized LOC100506473 (LOC100506473), transcript variant X1, ncRNA'
p1874
sS'XM_006710060'
p1875
S' PREDICTED: Homo sapiens abhydrolase domain-containing protein FAM108A2/A3-like (LOC101930551), partial mRNA'
p1876
sS'XM_006710061'
p1877
S' PREDICTED: Homo sapiens uncharacterized LOC102724571 (LOC102724571), transcript variant X1, mRNA'
p1878
sS'XM_006710062'
p1879
S' PREDICTED: Homo sapiens uncharacterized LOC102724571 (LOC102724571), transcript variant X2, mRNA'
p1880
sS'XR_425175'
p1881
S' PREDICTED: Homo sapiens uncharacterized LOC102724125 (LOC102724125), transcript variant X2, ncRNA'
p1882
sS'XR_425174'
p1883
S' PREDICTED: Homo sapiens uncharacterized LOC102724125 (LOC102724125), transcript variant X1, ncRNA'
p1884
sS'XR_425176'
p1885
S' PREDICTED: Homo sapiens uncharacterized LOC102725447 (LOC102725447), ncRNA'
p1886
sS'XR_425171'
p1887
S' PREDICTED: Homo sapiens uncharacterized LOC101930559 (LOC101930559), ncRNA'
p1888
sS'XR_425170'
p1889
S' PREDICTED: Homo sapiens uncharacterized LOC101926925 (RP4-794H19.4), transcript variant X3, ncRNA'
p1890
sS'XR_425173'
p1891
S' PREDICTED: Homo sapiens uncharacterized LOC102724140 (LOC102724140), ncRNA'
p1892
sS'XR_425172'
p1893
S' PREDICTED: Homo sapiens uncharacterized LOC102724154 (LOC102724154), ncRNA'
p1894
sS'XR_425179'
p1895
S' PREDICTED: Homo sapiens uncharacterized LOC102723784 (LOC102723784), ncRNA'
p1896
sS'XR_425178'
p1897
S' PREDICTED: Homo sapiens uncharacterized LOC102724312 (LOC102724312), ncRNA'
p1898
sS'NR_027134'
p1899
S' Homo sapiens uncharacterized DKFZp779M0652 (DKFZp779M0652), long non-coding RNA'
p1900
sS'NR_046098'
p1901
S' Homo sapiens uncharacterized LOC284581 (LOC284581), transcript variant 2, long non-coding RNA'
p1902
sS'XR_133231'
p1903
S' PREDICTED: Homo sapiens uncharacterized LOC400743 (LOC400743), misc_RNA'
p1904
sS'XR_425009'
p1905
S' PREDICTED: Homo sapiens uncharacterized LOC102723321 (LOC102723321), ncRNA'
p1906
sS'XR_425146'
p1907
S' PREDICTED: Homo sapiens uncharacterized LOC102724045 (LOC102724045), ncRNA'
p1908
sS'XR_112288'
p1909
S' PREDICTED: Homo sapiens uncharacterized LOC100506317 (LOC100506317), transcript variant X1, ncRNA'
p1910
sS'XR_112281'
p1911
S' PREDICTED: Homo sapiens uncharacterized LOC100506014 (LOC100506014), transcript variant X1, ncRNA'
p1912
sS'XR_249148'
p1913
S' PREDICTED: Homo sapiens uncharacterized LOC101927803 (LOC101927803), ncRNA'
p1914
sS'XR_249149'
p1915
S' PREDICTED: Homo sapiens uncharacterized LOC101927826 (LOC101927826), transcript variant X1, ncRNA'
p1916
sS'XR_249142'
p1917
S' PREDICTED: Homo sapiens uncharacterized LOC101930566 (LOC101930566), ncRNA'
p1918
sS'XR_249143'
p1919
S' PREDICTED: Homo sapiens uncharacterized LOC101927661 (LOC101927661), transcript variant X1, ncRNA'
p1920
sS'XR_249144'
p1921
S' PREDICTED: Homo sapiens uncharacterized LOC101927684 (LOC101927684), ncRNA'
p1922
sS'XR_249146'
p1923
S' PREDICTED: Homo sapiens uncharacterized LOC101927723 (LOC101927723), ncRNA'
p1924
sS'XR_248639'
p1925
S' PREDICTED: Homo sapiens uncharacterized LOC284577 (RP11-576D8.4), misc_RNA'
p1926
sS'XR_248630'
p1927
S' PREDICTED: Homo sapiens uncharacterized LOC101928177 (LOC101928177), transcript variant X1, ncRNA'
p1928
sS'XR_248633'
p1929
S' PREDICTED: Homo sapiens uncharacterized LOC101928512 (LOC101928512), transcript variant X1, ncRNA'
p1930
sS'XR_248635'
p1931
S' PREDICTED: Homo sapiens uncharacterized LOC101928512 (LOC101928512), transcript variant X3, ncRNA'
p1932
sS'XR_248637'
p1933
S' PREDICTED: Homo sapiens uncharacterized LOC101928459 (LOC101928459), ncRNA'
p1934
sS'NR_034152'
p1935
S' Homo sapiens uncharacterized LOC149950 (LOC149950), long non-coding RNA'
p1936
sS'XR_425515'
p1937
S' PREDICTED: Homo sapiens uncharacterized LOC102724692 (LOC102724692), transcript variant X3, ncRNA'
p1938
sS'XR_249328'
p1939
S' PREDICTED: Homo sapiens uncharacterized LOC285191 (AC011298.2), misc_RNA'
p1940
sS'XR_249324'
p1941
S' PREDICTED: Homo sapiens uncharacterized LOC101928111 (LOC101928111), transcript variant X1, ncRNA'
p1942
sS'XR_249325'
p1943
S' PREDICTED: Homo sapiens uncharacterized LOC101928111 (LOC101928111), transcript variant X2, ncRNA'
p1944
sS'XR_249326'
p1945
S' PREDICTED: Homo sapiens uncharacterized LOC101928111 (LOC101928111), transcript variant X3, ncRNA'
p1946
sS'XR_249327'
p1947
S' PREDICTED: Homo sapiens uncharacterized LOC101927147 (LOC101927147), ncRNA'
p1948
sS'XR_249320'
p1949
S' PREDICTED: Homo sapiens uncharacterized LOC101928881 (LOC101928881), ncRNA'
p1950
sS'XR_249321'
p1951
S' PREDICTED: Homo sapiens uncharacterized LOC101928854 (LOC101928854), ncRNA'
p1952
sS'XR_249323'
p1953
S' PREDICTED: Homo sapiens uncharacterized LOC101927958 (LOC101927958), ncRNA'
p1954
sS'XR_249457'
p1955
S' PREDICTED: Homo sapiens uncharacterized LOC101929514 (LOC101929514), transcript variant X1, ncRNA'
p1956
sS'XR_249454'
p1957
S' PREDICTED: Homo sapiens uncharacterized LOC101929579 (RP11-446H18.5), transcript variant X2, ncRNA'
p1958
sS'XR_249455'
p1959
S' PREDICTED: Homo sapiens uncharacterized LOC101929534 (LOC101929534), transcript variant X1, ncRNA'
p1960
sS'XR_249453'
p1961
S' PREDICTED: Homo sapiens uncharacterized LOC101929579 (RP11-446H18.5), transcript variant X1, ncRNA'
p1962
sS'XR_249450'
p1963
S' PREDICTED: Homo sapiens uncharacterized LOC101929644 (LOC101929644), ncRNA'
p1964
sS'XR_249458'
p1965
S' PREDICTED: Homo sapiens uncharacterized LOC101929485 (LOC101929485), transcript variant X1, ncRNA'
p1966
sS'XR_249459'
p1967
S' PREDICTED: Homo sapiens uncharacterized LOC101929485 (LOC101929485), transcript variant X2, ncRNA'
p1968
sS'XR_249211'
p1969
S' PREDICTED: Homo sapiens uncharacterized LOC101928361 (LOC101928361), ncRNA'
p1970
sS'XR_249212'
p1971
S' PREDICTED: Homo sapiens uncharacterized LOC101928339 (LOC101928339), ncRNA'
p1972
sS'XR_249216'
p1973
S' PREDICTED: Homo sapiens uncharacterized LOC101928185 (LOC101928185), ncRNA'
p1974
sS'XR_249218'
p1975
S' PREDICTED: Homo sapiens uncharacterized LOC101928067 (LOC101928067), transcript variant X1, ncRNA'
p1976
sS'XR_249219'
p1977
S' PREDICTED: Homo sapiens uncharacterized LOC101928067 (LOC101928067), transcript variant X2, ncRNA'
p1978
sS'NR_026674'
p1979
S' Homo sapiens uncharacterized protein FLJ30679 (FLJ30679), long non-coding RNA'
p1980
sS'XR_425214'
p1981
S' PREDICTED: Homo sapiens uncharacterized LOC101929438 (RP6-206I17.2), transcript variant X4, ncRNA'
p1982
sS'NR_040117'
p1983
S' Homo sapiens nuclear pore associated protein 1 pseudogene (LOC392364), non-coding RNA'
p1984
sS'XR_425217'
p1985
S' PREDICTED: Homo sapiens uncharacterized LOC101929438 (RP6-206I17.2), transcript variant X7, ncRNA'
p1986
sS'XR_425588'
p1987
S' PREDICTED: Homo sapiens uncharacterized LOC101927854 (LOC101927854), transcript variant X1, ncRNA'
p1988
sS'XR_425589'
p1989
S' PREDICTED: Homo sapiens uncharacterized LOC101927854 (LOC101927854), transcript variant X2, ncRNA'
p1990
sS'XR_425585'
p1991
S' PREDICTED: Homo sapiens uncharacterized LOC102725370 (LOC102725370), transcript variant X1, ncRNA'
p1992
sS'XR_425586'
p1993
S' PREDICTED: Homo sapiens uncharacterized LOC102725370 (LOC102725370), transcript variant X2, ncRNA'
p1994
sS'XR_425587'
p1995
S' PREDICTED: Homo sapiens uncharacterized LOC102725370 (LOC102725370), transcript variant X3, ncRNA'
p1996
sS'XR_425580'
p1997
S' PREDICTED: Homo sapiens uncharacterized LOC101928323 (LOC101928323), transcript variant X3, ncRNA'
p1998
sS'XR_425581'
p1999
S' PREDICTED: Homo sapiens uncharacterized LOC101928153 (LOC101928153), ncRNA'
p2000
sS'XR_425582'
p2001
S' PREDICTED: Homo sapiens uncharacterized LOC102724048 (LOC102724048), ncRNA'
p2002
sS'XR_425583'
p2003
S' PREDICTED: Homo sapiens uncharacterized LOC101927995 (LOC101927995), transcript variant X2, ncRNA'
p2004
sS'XR_425760'
p2005
S' PREDICTED: Homo sapiens uncharacterized LOC102723905 (LOC102723905), ncRNA'
p2006
sS'XR_425761'
p2007
S' PREDICTED: Homo sapiens uncharacterized LOC102723914 (LOC102723914), ncRNA'
p2008
sS'XR_425762'
p2009
S' PREDICTED: Homo sapiens uncharacterized LOC102723956 (LOC102723956), ncRNA'
p2010
sS'XR_425763'
p2011
S' PREDICTED: Homo sapiens uncharacterized LOC102723967 (LOC102723967), transcript variant X1, ncRNA'
p2012
sS'XR_425764'
p2013
S' PREDICTED: Homo sapiens uncharacterized LOC102723967 (LOC102723967), transcript variant X2, ncRNA'
p2014
sS'XR_425765'
p2015
S' PREDICTED: Homo sapiens uncharacterized LOC101926936 (LOC101926936), transcript variant X2, ncRNA'
p2016
sS'XR_425766'
p2017
S' PREDICTED: Homo sapiens uncharacterized LOC102724069 (LOC102724069), ncRNA'
p2018
sS'XR_425767'
p2019
S' PREDICTED: Homo sapiens uncharacterized LOC101927007 (RP11-236P13.1), transcript variant X2, ncRNA'
p2020
sS'XR_425768'
p2021
S' PREDICTED: Homo sapiens uncharacterized LOC100996694 (RP11-700N1.1), transcript variant X3, ncRNA'
p2022
sS'XR_425769'
p2023
S' PREDICTED: Homo sapiens uncharacterized LOC101927052 (LOC101927052), transcript variant X2, ncRNA'
p2024
sS'XM_005275953'
p2025
S' PREDICTED: Homo sapiens succinate dehydrogenase [ubiquinone] flavoprotein subunit, mitochondrial-like (LOC101930534), transcript variant X1, mRNA'
p2026
sS'XM_005275955'
p2027
S' PREDICTED: Homo sapiens spidroin-2-like (LOC101928548), mRNA'
p2028
sS'XM_005275954'
p2029
S' PREDICTED: Homo sapiens succinate dehydrogenase [ubiquinone] flavoprotein subunit, mitochondrial-like (LOC101930534), transcript variant X2, mRNA'
p2030
sS'XM_005275957'
p2031
S' PREDICTED: Homo sapiens mucin-12-like (LOC101928621), transcript variant X2, mRNA'
p2032
sS'XM_005275956'
p2033
S' PREDICTED: Homo sapiens mucin-12-like (LOC101928621), transcript variant X1, mRNA'
p2034
sS'XM_006710079'
p2035
S' PREDICTED: Homo sapiens myomegalin-like (LOC100996724), transcript variant X6, mRNA'
p2036
sS'XM_006710078'
p2037
S' PREDICTED: Homo sapiens myomegalin-like (LOC100996724), transcript variant X5, mRNA'
p2038
sS'XM_006710073'
p2039
S' PREDICTED: Homo sapiens TBC1 domain family member 3H-like (LOC101928566), mRNA'
p2040
sS'XM_006710077'
p2041
S' PREDICTED: Homo sapiens myomegalin-like (LOC100996724), transcript variant X4, mRNA'
p2042
sS'NR_024389'
p2043
S' Homo sapiens uncharacterized LOC100192386 (FLJ16779), long non-coding RNA'
p2044
sS'XM_006710075'
p2045
S' PREDICTED: Homo sapiens uncharacterized LOC102723410 (LOC102723410), mRNA'
p2046
sS'XM_006710074'
p2047
S' PREDICTED: Homo sapiens uncharacterized LOC100506504 (LOC100506504), mRNA'
p2048
sS'XR_425166'
p2049
S' PREDICTED: Homo sapiens uncharacterized LOC100996301 (LOC100996301), ncRNA'
p2050
sS'XR_425167'
p2051
S' PREDICTED: Homo sapiens uncharacterized LOC102724281 (LOC102724281), transcript variant X1, ncRNA'
p2052
sS'XR_425164'
p2053
S' PREDICTED: Homo sapiens uncharacterized LOC101927084 (RP11-182I10.3), transcript variant X3, ncRNA'
p2054
sS'XR_425165'
p2055
S' PREDICTED: Homo sapiens uncharacterized LOC101927084 (RP11-182I10.3), transcript variant X4, ncRNA'
p2056
sS'XR_425162'
p2057
S' PREDICTED: Homo sapiens uncharacterized LOC101927084 (RP11-182I10.3), transcript variant X1, ncRNA'
p2058
sS'XR_425163'
p2059
S' PREDICTED: Homo sapiens uncharacterized LOC101927084 (RP11-182I10.3), transcript variant X2, ncRNA'
p2060
sS'XR_425161'
p2061
S' PREDICTED: Homo sapiens uncharacterized LOC102724416 (LOC102724416), ncRNA'
p2062
sS'XR_425168'
p2063
S' PREDICTED: Homo sapiens uncharacterized LOC102724281 (LOC102724281), transcript variant X2, ncRNA'
p2064
sS'XR_425169'
p2065
S' PREDICTED: Homo sapiens uncharacterized LOC101926925 (RP4-794H19.4), transcript variant X2, ncRNA'
p2066
sS'XR_112631'
p2067
S' PREDICTED: Homo sapiens uncharacterized LOC100506827 (LOC100506827), ncRNA'
p2068
sS'XR_133201'
p2069
S' PREDICTED: Homo sapiens uncharacterized LOC100129476 (LOC100129476), misc_RNA'
p2070
sS'XR_425535'
p2071
S' PREDICTED: Homo sapiens uncharacterized LOC101928662 (LOC101928662), transcript variant X2, ncRNA'
p2072
sS'XR_425018'
p2073
S' PREDICTED: Homo sapiens uncharacterized LOC101928836 (LOC101928836), transcript variant X3, ncRNA'
p2074
sS'XR_425019'
p2075
S' PREDICTED: Homo sapiens uncharacterized LOC102724539 (LOC102724539), ncRNA'
p2076
sS'XR_425012'
p2077
S' PREDICTED: Homo sapiens uncharacterized LOC100293748 (LOC100293748), transcript variant X1, ncRNA'
p2078
sS'XR_425013'
p2079
S' PREDICTED: Homo sapiens uncharacterized LOC100293748 (LOC100293748), transcript variant X2, ncRNA'
p2080
sS'XR_425010'
p2081
S' PREDICTED: Homo sapiens uncharacterized LOC101929257 (LOC101929257), ncRNA'
p2082
sS'XR_425011'
p2083
S' PREDICTED: Homo sapiens uncharacterized LOC101927468 (RP4-565E6.1), ncRNA'
p2084
sS'XR_425017'
p2085
S' PREDICTED: Homo sapiens uncharacterized LOC101928836 (LOC101928836), transcript variant X2, ncRNA'
p2086
sS'XR_425014'
p2087
S' PREDICTED: Homo sapiens uncharacterized LOC101929561 (LOC101929561), misc_RNA'
p2088
sS'XR_425015'
p2089
S' PREDICTED: Homo sapiens uncharacterized LOC102724450 (LOC102724450), transcript variant X1, ncRNA'
p2090
sS'XR_425196'
p2091
S' PREDICTED: Homo sapiens uncharacterized LOC101927871 (LOC101927871), transcript variant X2, ncRNA'
p2092
sS'XR_112700'
p2093
S' PREDICTED: Homo sapiens uncharacterized LOC100506107 (LOC100506107), ncRNA'
p2094
sS'XR_425195'
p2095
S' PREDICTED: Homo sapiens uncharacterized LOC101927952 (LOC101927952), ncRNA'
p2096
sS'XR_425666'
p2097
S' PREDICTED: Homo sapiens uncharacterized LOC102724289 (LOC102724289), ncRNA'
p2098
sS'XR_425661'
p2099
S' PREDICTED: Homo sapiens uncharacterized LOC102724384 (LOC102724384), ncRNA'
p2100
sS'XR_425660'
p2101
S' PREDICTED: Homo sapiens cytokine receptor CRL2 (RP11-379F4.4), misc_RNA'
p2102
sS'XR_249138'
p2103
S' PREDICTED: Homo sapiens uncharacterized LOC101927533 (LOC101927533), ncRNA'
p2104
sS'XR_249137'
p2105
S' PREDICTED: Homo sapiens uncharacterized LOC100996770 (LOC100996770), ncRNA'
p2106
sS'XR_425662'
p2107
S' PREDICTED: Homo sapiens uncharacterized LOC101928236 (LOC101928236), transcript variant X2, ncRNA'
p2108
sS'XR_249131'
p2109
S' PREDICTED: Homo sapiens uncharacterized LOC101927165 (LOC101927165), ncRNA'
p2110
sS'XR_249130'
p2111
S' PREDICTED: Homo sapiens uncharacterized LOC101927144 (LOC101927144), transcript variant X1, ncRNA'
p2112
sS'XR_249133'
p2113
S' PREDICTED: Homo sapiens uncharacterized LOC101927235 (LOC101927235), ncRNA'
p2114
sS'XR_249132'
p2115
S' PREDICTED: Homo sapiens uncharacterized LOC101927213 (LOC101927213), ncRNA'
p2116
sS'XR_425742'
p2117
S' PREDICTED: Homo sapiens uncharacterized LOC102724832 (LOC102724832), transcript variant X2, ncRNA'
p2118
sS'XR_425215'
p2119
S' PREDICTED: Homo sapiens uncharacterized LOC101929438 (RP6-206I17.2), transcript variant X5, ncRNA'
p2120
sS'XR_425216'
p2121
S' PREDICTED: Homo sapiens uncharacterized LOC101929438 (RP6-206I17.2), transcript variant X6, ncRNA'
p2122
sS'XR_248629'
p2123
S' PREDICTED: Homo sapiens uncharacterized LOC101928202 (RP11-85G21.2), ncRNA'
p2124
sS'XR_425746'
p2125
S' PREDICTED: Homo sapiens uncharacterized LOC102723404 (LOC102723404), transcript variant X1, ncRNA'
p2126
sS'XR_248627'
p2127
S' PREDICTED: Homo sapiens uncharacterized LOC101928319 (LOC101928319), ncRNA'
p2128
sS'XR_248625'
p2129
S' PREDICTED: Homo sapiens uncharacterized LOC101928101 (LOC101928101), ncRNA'
p2130
sS'XR_425744'
p2131
S' PREDICTED: Homo sapiens uncharacterized LOC102723338 (LOC102723338), ncRNA'
p2132
sS'XR_425745'
p2133
S' PREDICTED: Homo sapiens uncharacterized LOC102723358 (LOC102723358), ncRNA'
p2134
sS'XR_249683'
p2135
S' PREDICTED: Homo sapiens uncharacterized LOC729870 (LOC729870), misc_RNA'
p2136
sS'NR_015433'
p2137
S' Homo sapiens Morf4 family associated protein 1-like 1 pseudogene (LOC93622), non-coding RNA'
p2138
sS'XR_249680'
p2139
S' PREDICTED: Homo sapiens hCG38984 (LOC345051), transcript variant X2, misc_RNA'
p2140
sS'XR_249687'
p2141
S' PREDICTED: Homo sapiens uncharacterized LOC101928028 (LOC101928028), ncRNA'
p2142
sS'XR_249686'
p2143
S' PREDICTED: Homo sapiens uncharacterized LOC101928007 (LOC101928007), ncRNA'
p2144
sS'NR_038877'
p2145
S' Homo sapiens uncharacterized LOC286189 (LOC286189), long non-coding RNA'
p2146
sS'XR_249689'
p2147
S' PREDICTED: Homo sapiens uncharacterized LOC101928081 (LOC101928081), ncRNA'
p2148
sS'XR_249669'
p2149
S' PREDICTED: Homo sapiens uncharacterized LOC101927414 (LOC101927414), transcript variant X2, ncRNA'
p2150
sS'XR_249668'
p2151
S' PREDICTED: Homo sapiens uncharacterized LOC101927414 (LOC101927414), transcript variant X1, ncRNA'
p2152
sS'XR_249660'
p2153
S' PREDICTED: Homo sapiens uncharacterized LOC101927259 (LOC101927259), ncRNA'
p2154
sS'XR_249667'
p2155
S' PREDICTED: Homo sapiens uncharacterized LOC729307 (LOC729307), misc_RNA'
p2156
sS'XM_001721827'
p2157
S' PREDICTED: Homo sapiens uncharacterized LOC100128905 (LOC100128905), mRNA'
p2158
sS'NR_034032'
p2159
S' Homo sapiens uncharacterized LOC100289361 (LOC100289361), long non-coding RNA'
p2160
sS'XR_249597'
p2161
S' PREDICTED: Homo sapiens uncharacterized LOC101928760 (LOC101928760), ncRNA'
p2162
sS'XR_249596'
p2163
S' PREDICTED: Homo sapiens uncharacterized LOC339978 (LOC339978), misc_RNA'
p2164
sS'XR_249595'
p2165
S' PREDICTED: Homo sapiens uncharacterized LOC100506444 (RP11-317M11.1), transcript variant X2, ncRNA'
p2166
sS'XR_249593'
p2167
S' PREDICTED: Homo sapiens uncharacterized LOC101928658 (LOC101928658), transcript variant X2, ncRNA'
p2168
sS'XR_249260'
p2169
S' PREDICTED: Homo sapiens uncharacterized LOC101927366 (LOC101927366), ncRNA'
p2170
sS'XR_249263'
p2171
S' PREDICTED: Homo sapiens uncharacterized LOC101927454 (LOC101927454), ncRNA'
p2172
sS'XR_249269'
p2173
S' PREDICTED: Homo sapiens uncharacterized LOC101927567 (LOC101927567), ncRNA'
p2174
sS'XR_249268'
p2175
S' PREDICTED: Homo sapiens uncharacterized LOC101927596 (LOC101927596), transcript variant X1, ncRNA'
p2176
sS'XR_249599'
p2177
S' PREDICTED: Homo sapiens uncharacterized LOC101928815 (LOC101928815), transcript variant X1, ncRNA'
p2178
sS'XR_249598'
p2179
S' PREDICTED: Homo sapiens uncharacterized LOC101928785 (LOC101928785), ncRNA'
p2180
sS'XR_249468'
p2181
S' PREDICTED: Homo sapiens uncharacterized LOC101926983 (LOC101926983), transcript variant X1, ncRNA'
p2182
sS'XR_249462'
p2183
S' PREDICTED: Homo sapiens uncharacterized LOC101929411 (LOC101929411), ncRNA'
p2184
sS'XR_249461'
p2185
S' PREDICTED: Homo sapiens uncharacterized LOC101929453 (LOC101929453), transcript variant X2, ncRNA'
p2186
sS'XR_249460'
p2187
S' PREDICTED: Homo sapiens uncharacterized LOC101929453 (LOC101929453), transcript variant X1, ncRNA'
p2188
sS'XR_249467'
p2189
S' PREDICTED: Homo sapiens uncharacterized LOC101927010 (LOC101927010), ncRNA'
p2190
sS'XR_249466'
p2191
S' PREDICTED: Homo sapiens uncharacterized LOC101927028 (LOC101927028), transcript variant X2, ncRNA'
p2192
sS'XR_249465'
p2193
S' PREDICTED: Homo sapiens uncharacterized LOC101927028 (LOC101927028), transcript variant X1, ncRNA'
p2194
sS'XR_249464'
p2195
S' PREDICTED: Homo sapiens uncharacterized LOC101927056 (RP11-379B18.5), transcript variant X1, ncRNA'
p2196
sS'XR_159429'
p2197
S' PREDICTED: Homo sapiens uncharacterized LOC100129516 (LOC100129516), misc_RNA'
p2198
sS'XM_003403715'
p2199
S' PREDICTED: Homo sapiens putative uncharacterized protein FLJ44672-like (LOC728728), mRNA'
p2200
sS'NR_026792'
p2201
S' Homo sapiens makorin ring finger protein 1 pseudogene (LOC441455), non-coding RNA'
p2202
sS'XR_248743'
p2203
S' PREDICTED: Homo sapiens uncharacterized LOC400812 (FLJ39095), misc_RNA'
p2204
sS'XR_248880'
p2205
S' PREDICTED: Homo sapiens uncharacterized LOC101930314 (LOC101930314), transcript variant X1, ncRNA'
p2206
sS'XR_425570'
p2207
S' PREDICTED: Homo sapiens uncharacterized LOC101928965 (LOC101928965), transcript variant X4, ncRNA'
p2208
sS'XR_425573'
p2209
S' PREDICTED: Homo sapiens uncharacterized LOC101928838 (LOC101928838), transcript variant X3, ncRNA'
p2210
sS'XR_425572'
p2211
S' PREDICTED: Homo sapiens uncharacterized LOC102724438 (LOC102724438), ncRNA'
p2212
sS'XR_425575'
p2213
S' PREDICTED: Homo sapiens uncharacterized LOC102724305 (LOC102724305), ncRNA'
p2214
sS'XR_425574'
p2215
S' PREDICTED: Homo sapiens uncharacterized LOC101928814 (LOC101928814), ncRNA'
p2216
sS'XR_425577'
p2217
S' PREDICTED: Homo sapiens uncharacterized LOC102724231 (LOC102724231), transcript variant X1, ncRNA'
p2218
sS'XR_425576'
p2219
S' PREDICTED: Homo sapiens uncharacterized LOC102724297 (LOC102724297), ncRNA'
p2220
sS'XR_425579'
p2221
S' PREDICTED: Homo sapiens uncharacterized LOC101928323 (LOC101928323), transcript variant X2, ncRNA'
p2222
sS'XR_425578'
p2223
S' PREDICTED: Homo sapiens uncharacterized LOC102724231 (LOC102724231), transcript variant X2, ncRNA'
p2224
sS'NM_001282442'
p2225
S' Homo sapiens uncharacterized LOC100131303 (LOC100131303), mRNA'
p2226
sS'XR_159331'
p2227
S' PREDICTED: Homo sapiens uncharacterized LOC100506929 (LOC100506929), transcript variant X2, ncRNA'
p2228
sS'XR_112557'
p2229
S' PREDICTED: Homo sapiens uncharacterized LOC100505609 (LOC100505609), transcript variant 1, ncRNA'
p2230
sS'XR_425715'
p2231
S' PREDICTED: Homo sapiens uncharacterized LOC102723710 (LOC102723710), transcript variant X2, ncRNA'
p2232
sS'XR_425714'
p2233
S' PREDICTED: Homo sapiens uncharacterized LOC102723710 (LOC102723710), transcript variant X1, ncRNA'
p2234
sS'XR_425717'
p2235
S' PREDICTED: Homo sapiens uncharacterized LOC102725499 (LOC102725499), ncRNA'
p2236
sS'XR_425716'
p2237
S' PREDICTED: Homo sapiens uncharacterized LOC102723733 (LOC102723733), ncRNA'
p2238
sS'XR_425711'
p2239
S' PREDICTED: Homo sapiens uncharacterized LOC102723645 (LOC102723645), ncRNA'
p2240
sS'XR_425710'
p2241
S' PREDICTED: Homo sapiens uncharacterized LOC102723602 (LOC102723602), ncRNA'
p2242
sS'XR_425713'
p2243
S' PREDICTED: Homo sapiens uncharacterized LOC102723675 (LOC102723675), ncRNA'
p2244
sS'XR_425712'
p2245
S' PREDICTED: Homo sapiens uncharacterized LOC102723659 (LOC102723659), ncRNA'
p2246
sS'NR_036557'
p2247
S' Homo sapiens alpha-1,3-mannosyl-glycoprotein 4-beta-N-acetylglucosaminyltransferase-like protein LOC641515 homolog (LOC100506747), non-coding RNA'
p2248
sS'XR_425719'
p2249
S' PREDICTED: Homo sapiens uncharacterized LOC102723764 (LOC102723764), ncRNA'
p2250
sS'XR_425718'
p2251
S' PREDICTED: Homo sapiens uncharacterized LOC102723744 (LOC102723744), ncRNA'
p2252
sS'XR_425485'
p2253
S' PREDICTED: Homo sapiens uncharacterized LOC102724067 (LOC102724067), ncRNA'
p2254
sS'XR_425484'
p2255
S' PREDICTED: Homo sapiens uncharacterized LOC102724058 (LOC102724058), ncRNA'
p2256
sS'XR_425487'
p2257
S' PREDICTED: Homo sapiens uncharacterized LOC101929753 (LOC101929753), transcript variant X2, ncRNA'
p2258
sS'XR_425486'
p2259
S' PREDICTED: Homo sapiens uncharacterized LOC102724081 (LOC102724081), ncRNA'
p2260
sS'XR_425481'
p2261
S' PREDICTED: Homo sapiens uncharacterized LOC101929633 (LOC101929633), transcript variant X4, ncRNA'
p2262
sS'XR_425480'
p2263
S' PREDICTED: Homo sapiens uncharacterized LOC101929633 (LOC101929633), transcript variant X3, ncRNA'
p2264
sS'XR_425483'
p2265
S' PREDICTED: Homo sapiens uncharacterized LOC101929658 (LOC101929658), transcript variant X3, ncRNA'
p2266
sS'XR_425482'
p2267
S' PREDICTED: Homo sapiens uncharacterized LOC101929658 (LOC101929658), transcript variant X2, ncRNA'
p2268
sS'XR_425489'
p2269
S' PREDICTED: Homo sapiens uncharacterized LOC102724136 (LOC102724136), ncRNA'
p2270
sS'XR_425488'
p2271
S' PREDICTED: Homo sapiens uncharacterized LOC101929753 (LOC101929753), transcript variant X3, ncRNA'
p2272
sS'NR_077241'
p2273
S' Homo sapiens platelet-activating factor acetylhydrolase 1b, catalytic subunit 2 (30kDa) pseudogene (LOC643711), transcript variant 2, non-coding RNA'
p2274
sS'NR_002826'
p2275
S' Homo sapiens nucleolar complex associated 2 homolog (S. cerevisiae) pseudogene (LOC401010), non-coding RNA'
p2276
sS'XR_425373'
p2277
S' PREDICTED: Homo sapiens uncharacterized LOC102724948 (LOC102724948), ncRNA'
p2278
sS'XR_425800'
p2279
S' PREDICTED: Homo sapiens uncharacterized LOC102724976 (LOC102724976), ncRNA'
p2280
sS'XR_425371'
p2281
S' PREDICTED: Homo sapiens uncharacterized LOC101929733 (LOC101929733), transcript variant X2, ncRNA'
p2282
sS'XR_425370'
p2283
S' PREDICTED: Homo sapiens uncharacterized LOC101929733 (LOC101929733), transcript variant X1, ncRNA'
p2284
sS'XR_425375'
p2285
S' PREDICTED: Homo sapiens uncharacterized LOC101928149 (LOC101928149), ncRNA'
p2286
sS'XR_425374'
p2287
S' PREDICTED: Homo sapiens uncharacterized LOC102724898 (LOC102724898), ncRNA'
p2288
sS'XR_425379'
p2289
S' PREDICTED: Homo sapiens uncharacterized LOC102723389 (LOC102723389), ncRNA'
p2290
sS'XR_425378'
p2291
S' PREDICTED: Homo sapiens uncharacterized LOC101929251 (LOC101929251), transcript variant X2, ncRNA'
p2292
sS'XR_425629'
p2293
S' PREDICTED: Homo sapiens uncharacterized LOC102723611 (LOC102723611), ncRNA'
p2294
sS'XR_425628'
p2295
S' PREDICTED: Homo sapiens uncharacterized LOC101927028 (LOC101927028), transcript variant X6, ncRNA'
p2296
sS'XR_425159'
p2297
S' PREDICTED: Homo sapiens uncharacterized LOC102724481 (LOC102724481), ncRNA'
p2298
sS'XR_425158'
p2299
S' PREDICTED: Homo sapiens uncharacterized LOC101929986 (LOC101929986), ncRNA'
p2300
sS'XR_425621'
p2301
S' PREDICTED: Homo sapiens uncharacterized LOC102723696 (LOC102723696), transcript variant X2, ncRNA'
p2302
sS'XR_425152'
p2303
S' PREDICTED: Homo sapiens uncharacterized LOC102725351 (LOC102725351), ncRNA'
p2304
sS'XR_425623'
p2305
S' PREDICTED: Homo sapiens uncharacterized LOC101927056 (RP11-379B18.5), transcript variant X3, ncRNA'
p2306
sS'XR_425622'
p2307
S' PREDICTED: Homo sapiens uncharacterized LOC101927056 (RP11-379B18.5), transcript variant X2, ncRNA'
p2308
sS'XR_425157'
p2309
S' PREDICTED: Homo sapiens uncharacterized LOC102724548 (LOC102724548), ncRNA'
p2310
sS'XR_425156'
p2311
S' PREDICTED: Homo sapiens uncharacterized LOC102724572 (LOC102724572), transcript variant X2, ncRNA'
p2312
sS'XR_425155'
p2313
S' PREDICTED: Homo sapiens uncharacterized LOC102724572 (LOC102724572), transcript variant X1, ncRNA'
p2314
sS'XR_425154'
p2315
S' PREDICTED: Homo sapiens uncharacterized LOC101927342 (RP11-550H2.1), transcript variant X2, ncRNA'
p2316
sS'XR_425399'
p2317
S' PREDICTED: Homo sapiens uncharacterized LOC101927144 (LOC101927144), transcript variant X2, ncRNA'
p2318
sS'XR_425398'
p2319
S' PREDICTED: Homo sapiens uncharacterized LOC102724008 (LOC102724008), ncRNA'
p2320
sS'XR_425391'
p2321
S' PREDICTED: Homo sapiens uncharacterized LOC102725386 (LOC102725386), ncRNA'
p2322
sS'XR_425390'
p2323
S' PREDICTED: Homo sapiens uncharacterized LOC102723845 (LOC102723845), ncRNA'
p2324
sS'XR_425393'
p2325
S' PREDICTED: Homo sapiens uncharacterized LOC101929763 (LOC101929763), transcript variant X2, ncRNA'
p2326
sS'XR_425392'
p2327
S' PREDICTED: Homo sapiens uncharacterized LOC102723854 (LOC102723854), ncRNA'
p2328
sS'XR_425395'
p2329
S' PREDICTED: Homo sapiens uncharacterized LOC102725399 (LOC102725399), ncRNA'
p2330
sS'XR_425394'
p2331
S' PREDICTED: Homo sapiens uncharacterized LOC101929763 (LOC101929763), transcript variant X3, ncRNA'
p2332
sS'XR_425397'
p2333
S' PREDICTED: Homo sapiens uncharacterized LOC102725420 (LOC102725420), ncRNA'
p2334
sS'XR_425396'
p2335
S' PREDICTED: Homo sapiens uncharacterized LOC102723947 (LOC102723947), ncRNA'
p2336
sS'XR_249684'
p2337
S' PREDICTED: Homo sapiens uncharacterized LOC101927947 (LOC101927947), transcript variant X1, ncRNA'
p2338
sS'XR_248719'
p2339
S' PREDICTED: Homo sapiens uncharacterized LOC101927401 (LOC101927401), transcript variant X2, ncRNA'
p2340
sS'XR_425029'
p2341
S' PREDICTED: Homo sapiens uncharacterized LOC102725513 (LOC102725513), transcript variant X6, ncRNA'
p2342
sS'XR_425028'
p2343
S' PREDICTED: Homo sapiens uncharacterized LOC102725513 (LOC102725513), transcript variant X5, ncRNA'
p2344
sS'XR_425027'
p2345
S' PREDICTED: Homo sapiens uncharacterized LOC102725513 (LOC102725513), transcript variant X4, ncRNA'
p2346
sS'XR_425026'
p2347
S' PREDICTED: Homo sapiens uncharacterized LOC102725513 (LOC102725513), transcript variant X3, ncRNA'
p2348
sS'XR_425025'
p2349
S' PREDICTED: Homo sapiens uncharacterized LOC102725513 (LOC102725513), transcript variant X2, ncRNA'
p2350
sS'XR_425024'
p2351
S' PREDICTED: Homo sapiens uncharacterized LOC102725513 (LOC102725513), transcript variant X1, ncRNA'
p2352
sS'XR_425023'
p2353
S' PREDICTED: Homo sapiens uncharacterized LOC102724647 (LOC102724647), ncRNA'
p2354
sS'XR_425022'
p2355
S' PREDICTED: Homo sapiens uncharacterized LOC102724571 (LOC102724571), transcript variant X4, misc_RNA'
p2356
sS'XR_425021'
p2357
S' PREDICTED: Homo sapiens uncharacterized LOC102724571 (LOC102724571), transcript variant X3, misc_RNA'
p2358
sS'XR_425020'
p2359
S' PREDICTED: Homo sapiens uncharacterized LOC102724552 (LOC102724552), ncRNA'
p2360
sS'XR_112580'
p2361
S' PREDICTED: Homo sapiens uncharacterized LOC100507291 (RP11-319G6.1), transcript variant X4, ncRNA'
p2362
sS'NR_103769'
p2363
S' Homo sapiens uncharacterized LOC100128233 (LOC100128233), long non-coding RNA'
p2364
sS'NR_103768'
p2365
S' Homo sapiens uncharacterized protein BC009467 (LOC158960), long non-coding RNA'
p2366
sS'NR_024492'
p2367
S' Homo sapiens uncharacterized LOC645644 (FLJ42627), long non-coding RNA'
p2368
sS'NR_024491'
p2369
S' Homo sapiens uncharacterized LOC100128573 (LOC100128573), long non-coding RNA'
p2370
sS'XR_249128'
p2371
S' PREDICTED: Homo sapiens uncharacterized LOC101927089 (LOC101927089), transcript variant X2, ncRNA'
p2372
sS'XR_249129'
p2373
S' PREDICTED: Homo sapiens uncharacterized LOC730100 (AC007682.1), misc_RNA'
p2374
sS'XR_249126'
p2375
S' PREDICTED: Homo sapiens uncharacterized LOC100506235 (LOC100506235), transcript variant X3, ncRNA'
p2376
sS'XR_249127'
p2377
S' PREDICTED: Homo sapiens uncharacterized LOC101927089 (LOC101927089), transcript variant X1, ncRNA'
p2378
sS'XR_249124'
p2379
S' PREDICTED: Homo sapiens uncharacterized LOC101926974 (LOC101926974), ncRNA'
p2380
sS'XR_249122'
p2381
S' PREDICTED: Homo sapiens uncharacterized LOC100130502 (LOC100130502), misc_RNA'
p2382
sS'XR_249120'
p2383
S' PREDICTED: Homo sapiens uncharacterized LOC101929763 (LOC101929763), transcript variant X1, ncRNA'
p2384
sS'XR_112629'
p2385
S' PREDICTED: Homo sapiens uncharacterized LOC100508631 (LOC100508631), ncRNA'
p2386
sS'XR_248619'
p2387
S' PREDICTED: Homo sapiens uncharacterized LOC101927988 (LOC101927988), ncRNA'
p2388
sS'XR_248618'
p2389
S' PREDICTED: Homo sapiens uncharacterized LOC101927949 (LOC101927949), ncRNA'
p2390
sS'XR_248617'
p2391
S' PREDICTED: Homo sapiens uncharacterized LOC101927929 (LOC101927929), ncRNA'
p2392
sS'XR_248615'
p2393
S' PREDICTED: Homo sapiens uncharacterized LOC101927886 (LOC101927886), ncRNA'
p2394
sS'XR_248610'
p2395
S' PREDICTED: Homo sapiens uncharacterized LOC101929074 (LOC101929074), ncRNA'
p2396
sS'NR_028328'
p2397
S' Homo sapiens uncharacterized LOC643923 (LOC643923), long non-coding RNA'
p2398
sS'XR_249694'
p2399
S' PREDICTED: Homo sapiens uncharacterized LOC101928223 (RP11-789C1.1), transcript variant X2, ncRNA'
p2400
sS'NR_015421'
p2401
S' Homo sapiens family with sequence similarity 115, member C pseudogene (LOC154761), non-coding RNA'
p2402
sS'XR_249693'
p2403
S' PREDICTED: Homo sapiens uncharacterized LOC101928223 (RP11-789C1.1), transcript variant X1, ncRNA'
p2404
sS'XR_249672'
p2405
S' PREDICTED: Homo sapiens uncharacterized LOC101927490 (LOC101927490), ncRNA'
p2406
sS'XR_249670'
p2407
S' PREDICTED: Homo sapiens uncharacterized LOC101927451 (LOC101927451), transcript variant X1, ncRNA'
p2408
sS'XR_249671'
p2409
S' PREDICTED: Homo sapiens uncharacterized LOC101927451 (LOC101927451), transcript variant X2, ncRNA'
p2410
sS'XR_249677'
p2411
S' PREDICTED: Homo sapiens uncharacterized LOC101927613 (LOC101927613), ncRNA'
p2412
sS'XR_249674'
p2413
S' PREDICTED: Homo sapiens uncharacterized LOC101927544 (LOC101927544), ncRNA'
p2414
sS'XR_249588'
p2415
S' PREDICTED: Homo sapiens uncharacterized LOC101927133 (LOC101927133), transcript variant X1, ncRNA'
p2416
sS'XR_249580'
p2417
S' PREDICTED: Homo sapiens uncharacterized LOC101928667 (LOC101928667), ncRNA'
p2418
sS'XR_249581'
p2419
S' PREDICTED: Homo sapiens uncharacterized LOC101928721 (LOC101928721), transcript variant X1, ncRNA'
p2420
sS'XR_249584'
p2421
S' PREDICTED: Homo sapiens uncharacterized LOC101928798 (LOC101928798), ncRNA'
p2422
sS'XR_249587'
p2423
S' PREDICTED: Homo sapiens uncharacterized LOC101927095 (LOC101927095), ncRNA'
p2424
sS'XR_249276'
p2425
S' PREDICTED: Homo sapiens uncharacterized LOC101927687 (LOC101927687), transcript variant X3, ncRNA'
p2426
sS'XR_249277'
p2427
S' PREDICTED: Homo sapiens uncharacterized LOC101927687 (LOC101927687), transcript variant X4, ncRNA'
p2428
sS'XR_249274'
p2429
S' PREDICTED: Homo sapiens uncharacterized LOC101927687 (LOC101927687), transcript variant X1, ncRNA'
p2430
sS'XR_249275'
p2431
S' PREDICTED: Homo sapiens uncharacterized LOC101927687 (LOC101927687), transcript variant X2, ncRNA'
p2432
sS'XR_249273'
p2433
S' PREDICTED: Homo sapiens uncharacterized LOC101927665 (LOC101927665), ncRNA'
p2434
sS'XM_003960901'
p2435
S' PREDICTED: Homo sapiens uncharacterized LOC101060085 (LOC101060085), mRNA'
p2436
sS'XR_249278'
p2437
S' PREDICTED: Homo sapiens uncharacterized LOC101927741 (LOC101927741), transcript variant X1, ncRNA'
p2438
sS'XR_249279'
p2439
S' PREDICTED: Homo sapiens uncharacterized LOC101927741 (LOC101927741), transcript variant X2, ncRNA'
p2440
sS'NR_026656'
p2441
S' Homo sapiens uncharacterized LOC400043 (LOC400043), long non-coding RNA'
p2442
sS'NR_026659'
p2443
S' Homo sapiens cysteine and histidine-rich domain (CHORD) containing 1 pseudogene (LOC727896), non-coding RNA'
p2444
sS'NR_037631'
p2445
S' Homo sapiens uncharacterized LOC100288911 (LOC100288911), long non-coding RNA'
p2446
sS'XR_249479'
p2447
S' PREDICTED: Homo sapiens uncharacterized LOC101929152 (LOC101929152), ncRNA'
p2448
sS'XR_249477'
p2449
S' PREDICTED: Homo sapiens uncharacterized LOC101929198 (LOC101929198), ncRNA'
p2450
sS'XR_249470'
p2451
S' PREDICTED: Homo sapiens uncharacterized LOC101927149 (RP11-59J16.1), transcript variant X1, ncRNA'
p2452
sS'NR_003682'
p2453
S' Homo sapiens C-terminal binding protein 2 pseudogene (MGC70870), non-coding RNA'
p2454
sS'NR_104170'
p2455
S' Homo sapiens uncharacterized LOC149684 (LOC149684), long non-coding RNA'
p2456
sS'NR_037701'
p2457
S' Homo sapiens DKFZp434H1419 (PKI55), long non-coding RNA'
p2458
sS'XR_425562'
p2459
S' PREDICTED: Homo sapiens uncharacterized LOC102725519 (LOC102725519), ncRNA'
p2460
sS'XR_425563'
p2461
S' PREDICTED: Homo sapiens uncharacterized LOC102724718 (LOC102724718), ncRNA'
p2462
sS'XR_425560'
p2463
S' PREDICTED: Homo sapiens uncharacterized LOC102725502 (LOC102725502), transcript variant X2, ncRNA'
p2464
sS'XR_425561'
p2465
S' PREDICTED: Homo sapiens uncharacterized LOC102724763 (LOC102724763), ncRNA'
p2466
sS'XR_425566'
p2467
S' PREDICTED: Homo sapiens uncharacterized LOC101929054 (LOC101929054), transcript variant X3, ncRNA'
p2468
sS'XR_425567'
p2469
S' PREDICTED: Homo sapiens uncharacterized LOC102724535 (LOC102724535), ncRNA'
p2470
sS'XR_425564'
p2471
S' PREDICTED: Homo sapiens uncharacterized LOC102724626 (LOC102724626), ncRNA'
p2472
sS'XR_425565'
p2473
S' PREDICTED: Homo sapiens uncharacterized LOC101929054 (LOC101929054), transcript variant X2, ncRNA'
p2474
sS'NR_027322'
p2475
S' Homo sapiens uncharacterized LOC283070 (LOC283070), long non-coding RNA'
p2476
sS'XR_425569'
p2477
S' PREDICTED: Homo sapiens uncharacterized LOC101928965 (LOC101928965), transcript variant X3, ncRNA'
p2478
sS'XR_159323'
p2479
S' PREDICTED: Homo sapiens uncharacterized LOC100996521 (LOC100996521), transcript variant X1, ncRNA'
p2480
sS'XR_249592'
p2481
S' PREDICTED: Homo sapiens uncharacterized LOC101928658 (LOC101928658), transcript variant X1, ncRNA'
p2482
sS'XR_425706'
p2483
S' PREDICTED: Homo sapiens uncharacterized LOC101928948 (LOC101928948), transcript variant X4, ncRNA'
p2484
sS'XR_425707'
p2485
S' PREDICTED: Homo sapiens uncharacterized LOC102723496 (LOC102723496), ncRNA'
p2486
sS'XR_425704'
p2487
S' PREDICTED: Homo sapiens uncharacterized LOC101928948 (LOC101928948), transcript variant X2, ncRNA'
p2488
sS'XR_425705'
p2489
S' PREDICTED: Homo sapiens uncharacterized LOC101928948 (LOC101928948), transcript variant X3, ncRNA'
p2490
sS'XR_425702'
p2491
S' PREDICTED: Homo sapiens uncharacterized LOC101928237 (LOC101928237), transcript variant X2, ncRNA'
p2492
sS'XR_425703'
p2493
S' PREDICTED: Homo sapiens uncharacterized LOC102723827 (LOC102723827), ncRNA'
p2494
sS'XR_425700'
p2495
S' PREDICTED: Homo sapiens uncharacterized LOC102723763 (LOC102723763), ncRNA'
p2496
sS'XR_425701'
p2497
S' PREDICTED: Homo sapiens uncharacterized LOC102723755 (LOC102723755), ncRNA'
p2498
sS'XR_425708'
p2499
S' PREDICTED: Homo sapiens uncharacterized LOC102723525 (LOC102723525), ncRNA'
p2500
sS'XR_425709'
p2501
S' PREDICTED: Homo sapiens uncharacterized LOC102725482 (LOC102725482), ncRNA'
p2502
sS'XR_425496'
p2503
S' PREDICTED: Homo sapiens uncharacterized LOC102724288 (LOC102724288), transcript variant X1, ncRNA'
p2504
sS'XR_425497'
p2505
S' PREDICTED: Homo sapiens uncharacterized LOC102724288 (LOC102724288), transcript variant X2, ncRNA'
p2506
sS'XR_425494'
p2507
S' PREDICTED: Homo sapiens uncharacterized LOC101930292 (LOC101930292), transcript variant X2, ncRNA'
p2508
sS'XR_425495'
p2509
S' PREDICTED: Homo sapiens uncharacterized LOC101930292 (LOC101930292), transcript variant X3, ncRNA'
p2510
sS'XR_425492'
p2511
S' PREDICTED: Homo sapiens uncharacterized LOC102724194 (LOC102724194), ncRNA'
p2512
sS'XR_425490'
p2513
S' PREDICTED: Homo sapiens uncharacterized LOC101926931 (LOC101926931), ncRNA'
p2514
sS'XR_249343'
p2515
S' PREDICTED: Homo sapiens uncharacterized LOC101927416 (AC037193.1), transcript variant X1, ncRNA'
p2516
sS'XR_425498'
p2517
S' PREDICTED: Homo sapiens uncharacterized LOC102724304 (LOC102724304), ncRNA'
p2518
sS'XR_425499'
p2519
S' PREDICTED: Homo sapiens uncharacterized LOC101929976 (LOC101929976), ncRNA'
p2520
sS'XR_249341'
p2521
S' PREDICTED: Homo sapiens uncharacterized LOC101930660 (LOC101930660), ncRNA'
p2522
sS'XR_425364'
p2523
S' PREDICTED: Homo sapiens uncharacterized LOC102724007 (LOC102724007), transcript variant X2, ncRNA'
p2524
sS'XR_425365'
p2525
S' PREDICTED: Homo sapiens uncharacterized LOC102724007 (LOC102724007), transcript variant X3, ncRNA'
p2526
sS'XR_425366'
p2527
S' PREDICTED: Homo sapiens uncharacterized LOC102724007 (LOC102724007), transcript variant X4, ncRNA'
p2528
sS'XR_425367'
p2529
S' PREDICTED: Homo sapiens uncharacterized LOC102724007 (LOC102724007), transcript variant X5, ncRNA'
p2530
sS'XR_425360'
p2531
S' PREDICTED: Homo sapiens uncharacterized LOC101929882 (LOC101929882), transcript variant X1, ncRNA'
p2532
sS'XR_425361'
p2533
S' PREDICTED: Homo sapiens uncharacterized LOC101929882 (LOC101929882), transcript variant X2, ncRNA'
p2534
sS'XR_425362'
p2535
S' PREDICTED: Homo sapiens uncharacterized LOC102723993 (LOC102723993), ncRNA'
p2536
sS'XR_425363'
p2537
S' PREDICTED: Homo sapiens uncharacterized LOC102724007 (LOC102724007), transcript variant X1, ncRNA'
p2538
sS'XM_005275882'
p2539
S' PREDICTED: Homo sapiens extensin-like (LOC101930320), mRNA'
p2540
sS'XR_425368'
p2541
S' PREDICTED: Homo sapiens uncharacterized LOC102724007 (LOC102724007), transcript variant X6, ncRNA'
p2542
sS'XR_425369'
p2543
S' PREDICTED: Homo sapiens uncharacterized LOC102724007 (LOC102724007), transcript variant X7, ncRNA'
p2544
sS'XR_425638'
p2545
S' PREDICTED: Homo sapiens uncharacterized LOC285389 (LOC285389), transcript variant X2, misc_RNA'
p2546
sS'XR_425639'
p2547
S' PREDICTED: Homo sapiens uncharacterized LOC285389 (LOC285389), transcript variant X3, misc_RNA'
p2548
sS'XR_425148'
p2549
S' PREDICTED: Homo sapiens uncharacterized LOC102724021 (LOC102724021), ncRNA'
p2550
sS'XR_425149'
p2551
S' PREDICTED: Homo sapiens uncharacterized LOC101929626 (RP4-533D7.5), transcript variant X1, ncRNA'
p2552
sS'XR_425144'
p2553
S' PREDICTED: Homo sapiens uncharacterized LOC102723832 (LOC102723832), ncRNA'
p2554
sS'XR_425633'
p2555
S' PREDICTED: Homo sapiens uncharacterized LOC101927149 (RP11-59J16.1), transcript variant X2, ncRNA'
p2556
sS'XR_425630'
p2557
S' PREDICTED: Homo sapiens uncharacterized LOC102723597 (LOC102723597), ncRNA'
p2558
sS'XR_425631'
p2559
S' PREDICTED: Homo sapiens uncharacterized LOC102725518 (LOC102725518), ncRNA'
p2560
sS'XR_425636'
p2561
S' PREDICTED: Homo sapiens uncharacterized LOC102724877 (LOC102724877), ncRNA'
p2562
sS'XR_425637'
p2563
S' PREDICTED: Homo sapiens uncharacterized LOC285389 (LOC285389), transcript variant X1, misc_RNA'
p2564
sS'XR_425634'
p2565
S' PREDICTED: Homo sapiens uncharacterized LOC102723759 (LOC102723759), ncRNA'
p2566
sS'XR_425635'
p2567
S' PREDICTED: Homo sapiens uncharacterized LOC101929337 (RP11-513G11.3), transcript variant X2, ncRNA'
p2568
sS'XR_425388'
p2569
S' PREDICTED: Homo sapiens uncharacterized LOC102723810 (LOC102723810), ncRNA'
p2570
sS'XR_425389'
p2571
S' PREDICTED: Homo sapiens uncharacterized LOC102723824 (LOC102723824), ncRNA'
p2572
sS'XR_425382'
p2573
S' PREDICTED: Homo sapiens uncharacterized LOC101929272 (LOC101929272), transcript variant X2, ncRNA'
p2574
sS'XR_425383'
p2575
S' PREDICTED: Homo sapiens uncharacterized LOC102723530 (LOC102723530), ncRNA'
p2576
sS'XR_425380'
p2577
S' PREDICTED: Homo sapiens uncharacterized LOC102723401 (LOC102723401), ncRNA'
p2578
sS'XR_425381'
p2579
S' PREDICTED: Homo sapiens uncharacterized LOC102723419 (LOC102723419), ncRNA'
p2580
sS'XR_425386'
p2581
S' PREDICTED: Homo sapiens uncharacterized LOC101929521 (LOC101929521), ncRNA'
p2582
sS'XR_425387'
p2583
S' PREDICTED: Homo sapiens uncharacterized LOC102723739 (LOC102723739), ncRNA'
p2584
sS'XR_425384'
p2585
S' PREDICTED: Homo sapiens uncharacterized LOC102723594 (LOC102723594), ncRNA'
p2586
sS'XR_425385'
p2587
S' PREDICTED: Homo sapiens uncharacterized LOC102725348 (LOC102725348), ncRNA'
p2588
sS'XR_112091'
p2589
S' PREDICTED: Homo sapiens uncharacterized LOC100505940 (LOC100505940), ncRNA'
p2590
sS'XR_425030'
p2591
S' PREDICTED: Homo sapiens uncharacterized LOC102724012 (LOC102724012), ncRNA'
p2592
sS'XR_425031'
p2593
S' PREDICTED: Homo sapiens uncharacterized LOC101928059 (LOC101928059), transcript variant X1, ncRNA'
p2594
sS'XR_425032'
p2595
S' PREDICTED: Homo sapiens uncharacterized LOC101928059 (LOC101928059), transcript variant X2, ncRNA'
p2596
sS'XR_425033'
p2597
S' PREDICTED: Homo sapiens uncharacterized LOC101928059 (LOC101928059), transcript variant X3, ncRNA'
p2598
sS'XR_425034'
p2599
S' PREDICTED: Homo sapiens uncharacterized LOC729867 (RP11-536C5.7), misc_RNA'
p2600
sS'XR_425035'
p2601
S' PREDICTED: Homo sapiens uncharacterized LOC101928264 (LOC101928264), transcript variant X1, ncRNA'
p2602
sS'XR_425036'
p2603
S' PREDICTED: Homo sapiens uncharacterized LOC101928264 (LOC101928264), transcript variant X2, ncRNA'
p2604
sS'XR_425037'
p2605
S' PREDICTED: Homo sapiens uncharacterized LOC101928264 (LOC101928264), transcript variant X3, ncRNA'
p2606
sS'XR_425038'
p2607
S' PREDICTED: Homo sapiens uncharacterized LOC102724222 (LOC102724222), ncRNA'
p2608
sS'XR_425039'
p2609
S' PREDICTED: Homo sapiens uncharacterized LOC102724206 (LOC102724206), ncRNA'
p2610
sS'NR_103794'
p2611
S' Homo sapiens uncharacterized LOC100996385 (LOC100996385), long non-coding RNA'
p2612
sS'XR_112272'
p2613
S' PREDICTED: Homo sapiens uncharacterized LOC727944 (LOC727944), transcript variant 1, ncRNA'
p2614
sS'NM_016275'
p2615
S' Homo sapiens selenoprotein T (SELT), mRNA'
p2616
sS'NR_103775'
p2617
S' Homo sapiens uncharacterized LOC100505984 (LOC100505984), long non-coding RNA'
p2618
sS'XR_172461'
p2619
S' PREDICTED: Homo sapiens rRNA-processing protein FCF1 homolog (LOC101060195), misc_RNA'
p2620
sS'XR_249111'
p2621
S' PREDICTED: Homo sapiens uncharacterized LOC101929542 (LOC101929542), ncRNA'
p2622
sS'XR_172464'
p2623
S' PREDICTED: Homo sapiens uncharacterized LOC644662 (LOC644662), ncRNA'
p2624
sS'XR_249116'
p2625
S' PREDICTED: Homo sapiens uncharacterized LOC101929667 (LOC101929667), transcript variant X2, ncRNA'
p2626
sS'XR_249115'
p2627
S' PREDICTED: Homo sapiens uncharacterized LOC101929667 (LOC101929667), transcript variant X1, ncRNA'
p2628
sS'XR_249118'
p2629
S' PREDICTED: Homo sapiens uncharacterized LOC101929700 (LOC101929700), ncRNA'
p2630
sS'XR_248603'
p2631
S' PREDICTED: Homo sapiens uncharacterized LOC100287877 (LOC100287877), misc_RNA'
p2632
sS'XR_248609'
p2633
S' PREDICTED: Homo sapiens uncharacterized LOC101928836 (LOC101928836), transcript variant X1, ncRNA'
p2634
sS'NR_028335'
p2635
S' Homo sapiens uncharacterized LOC284009 (LOC284009), long non-coding RNA'
p2636
sS'NR_109897'
p2637
S' Homo sapiens uncharacterized LOC728095 (CTB-174D11.1), long non-coding RNA'
p2638
sS'XR_249066'
p2639
S' PREDICTED: Homo sapiens uncharacterized LOC101927362 (LOC101927362), ncRNA'
p2640
sS'XR_249065'
p2641
S' PREDICTED: Homo sapiens uncharacterized LOC101927262 (LOC101927262), transcript variant X2, ncRNA'
p2642
sS'XR_249064'
p2643
S' PREDICTED: Homo sapiens uncharacterized LOC101927262 (LOC101927262), transcript variant X1, ncRNA'
p2644
sS'XR_249063'
p2645
S' PREDICTED: Homo sapiens uncharacterized LOC101930516 (LOC101930516), ncRNA'
p2646
sS'XR_249069'
p2647
S' PREDICTED: Homo sapiens uncharacterized LOC101927426 (LOC101927426), transcript variant X1, ncRNA'
p2648
sS'XR_249647'
p2649
S' PREDICTED: Homo sapiens uncharacterized LOC101926936 (LOC101926936), transcript variant X1, ncRNA'
p2650
sS'NR_047550'
p2651
S' Homo sapiens uncharacterized LOC100506082 (LOC100506082), long non-coding RNA'
p2652
sS'XR_249645'
p2653
S' PREDICTED: Homo sapiens uncharacterized LOC101929741 (LOC101929741), ncRNA'
p2654
sS'XR_249644'
p2655
S' PREDICTED: Homo sapiens uncharacterized LOC101929654 (LOC101929654), ncRNA'
p2656
sS'XR_249643'
p2657
S' PREDICTED: Homo sapiens uncharacterized LOC101929621 (LOC101929621), ncRNA'
p2658
sS'XR_249641'
p2659
S' PREDICTED: Homo sapiens uncharacterized LOC101929595 (RP11-286E11.1), transcript variant X1, ncRNA'
p2660
sS'XR_249249'
p2661
S' PREDICTED: Homo sapiens uncharacterized LOC101930299 (LOC101930299), ncRNA'
p2662
sS'XR_249243'
p2663
S' PREDICTED: Homo sapiens uncharacterized LOC101929753 (LOC101929753), transcript variant X1, ncRNA'
p2664
sS'XR_249242'
p2665
S' PREDICTED: Homo sapiens uncharacterized LOC100130256 (AC007277.3), misc_RNA'
p2666
sS'XR_249240'
p2667
S' PREDICTED: Homo sapiens uncharacterized LOC101929658 (LOC101929658), transcript variant X1, ncRNA'
p2668
sS'XR_249247'
p2669
S' PREDICTED: Homo sapiens uncharacterized LOC101930292 (LOC101930292), transcript variant X1, ncRNA'
p2670
sS'XR_249246'
p2671
S' PREDICTED: Homo sapiens uncharacterized LOC100129455 (LOC100129455), misc_RNA'
p2672
sS'NR_024264'
p2673
S' Homo sapiens uncharacterized LOC145845 (LOC145845), long non-coding RNA'
p2674
sS'NR_037629'
p2675
S' Homo sapiens programmed cell death 2 pseudogene (LOC728739), non-coding RNA'
p2676
sS'XR_249481'
p2677
S' PREDICTED: Homo sapiens uncharacterized LOC101929130 (LOC101929130), ncRNA'
p2678
sS'XR_249480'
p2679
S' PREDICTED: Homo sapiens uncharacterized LOC101930524 (LOC101930524), ncRNA'
p2680
sS'XR_249483'
p2681
S' PREDICTED: Homo sapiens uncharacterized LOC101929079 (LOC101929079), transcript variant X1, ncRNA'
p2682
sS'XR_249485'
p2683
S' PREDICTED: Homo sapiens uncharacterized LOC101929018 (LOC101929018), transcript variant X1, ncRNA'
p2684
sS'XR_425557'
p2685
S' PREDICTED: Homo sapiens uncharacterized LOC102723512 (LOC102723512), transcript variant X1, ncRNA'
p2686
sS'XR_425556'
p2687
S' PREDICTED: Homo sapiens uncharacterized LOC100130207 (LOC100130207), misc_RNA'
p2688
sS'XR_425555'
p2689
S' PREDICTED: Homo sapiens uncharacterized LOC102723596 (LOC102723596), ncRNA'
p2690
sS'XR_425554'
p2691
S' PREDICTED: Homo sapiens uncharacterized LOC102723609 (LOC102723609), transcript variant X2, ncRNA'
p2692
sS'XR_425553'
p2693
S' PREDICTED: Homo sapiens uncharacterized LOC102723609 (LOC102723609), transcript variant X1, ncRNA'
p2694
sS'XR_425552'
p2695
S' PREDICTED: Homo sapiens uncharacterized LOC101927416 (AC037193.1), transcript variant X2, ncRNA'
p2696
sS'XR_425551'
p2697
S' PREDICTED: Homo sapiens uncharacterized LOC102723927 (LOC102723927), ncRNA'
p2698
sS'XR_425550'
p2699
S' PREDICTED: Homo sapiens uncharacterized LOC101927206 (LOC101927206), transcript variant X2, ncRNA'
p2700
sS'XR_425559'
p2701
S' PREDICTED: Homo sapiens uncharacterized LOC102725502 (LOC102725502), transcript variant X1, ncRNA'
p2702
sS'XR_425558'
p2703
S' PREDICTED: Homo sapiens uncharacterized LOC102723512 (LOC102723512), transcript variant X2, ncRNA'
p2704
sS'NR_037885'
p2705
S' Homo sapiens uncharacterized LOC100287010 (LOC100287010), long non-coding RNA'
p2706
sS'XR_249631'
p2707
S' PREDICTED: Homo sapiens uncharacterized LOC101929375 (LOC101929375), ncRNA'
p2708
sS'XR_425609'
p2709
S' PREDICTED: Homo sapiens uncharacterized LOC728290 (LOC728290), transcript variant X4, ncRNA'
p2710
sS'XR_425608'
p2711
S' PREDICTED: Homo sapiens uncharacterized LOC102724949 (LOC102724949), ncRNA'
p2712
sS'XR_425607'
p2713
S' PREDICTED: Homo sapiens uncharacterized LOC102724914 (LOC102724914), ncRNA'
p2714
sS'XR_425606'
p2715
S' PREDICTED: Homo sapiens uncharacterized LOC102725494 (LOC102725494), ncRNA'
p2716
sS'XR_425605'
p2717
S' PREDICTED: Homo sapiens uncharacterized LOC102724840 (LOC102724840), transcript variant X2, ncRNA'
p2718
sS'XR_425604'
p2719
S' PREDICTED: Homo sapiens uncharacterized LOC102724840 (LOC102724840), transcript variant X1, ncRNA'
p2720
sS'XR_425603'
p2721
S' PREDICTED: Homo sapiens uncharacterized LOC102724817 (LOC102724817), ncRNA'
p2722
sS'XR_425602'
p2723
S' PREDICTED: Homo sapiens uncharacterized LOC102724799 (LOC102724799), ncRNA'
p2724
sS'XR_425601'
p2725
S' PREDICTED: Homo sapiens uncharacterized LOC102723663 (LOC102723663), transcript variant X2, ncRNA'
p2726
sS'XR_425600'
p2727
S' PREDICTED: Homo sapiens uncharacterized LOC102723663 (LOC102723663), transcript variant X1, ncRNA'
p2728
sS'XM_005275858'
p2729
S' PREDICTED: Homo sapiens myomegalin-like (LOC101930416), mRNA'
p2730
sS'XR_425739'
p2731
S' PREDICTED: Homo sapiens uncharacterized LOC102724794 (LOC102724794), ncRNA'
p2732
sS'XR_425738'
p2733
S' PREDICTED: Homo sapiens uncharacterized LOC102724780 (LOC102724780), ncRNA'
p2734
sS'NM_001207030'
p2735
S' Homo sapiens u3 small nucleolar ribonucleoprotein protein MPP10-like (LOC643802), mRNA'
p2736
sS'XR_425733'
p2737
S' PREDICTED: Homo sapiens uncharacterized LOC102724537 (LOC102724537), ncRNA'
p2738
sS'XR_425732'
p2739
S' PREDICTED: Homo sapiens uncharacterized LOC100506444 (RP11-317M11.1), transcript variant X4, ncRNA'
p2740
sS'XR_425731'
p2741
S' PREDICTED: Homo sapiens uncharacterized LOC100506444 (RP11-317M11.1), transcript variant X3, ncRNA'
p2742
sS'XR_425730'
p2743
S' PREDICTED: Homo sapiens uncharacterized LOC101927179 (LOC101927179), transcript variant X3, ncRNA'
p2744
sS'XR_425737'
p2745
S' PREDICTED: Homo sapiens uncharacterized LOC101927186 (RP11-84A1.3), ncRNA'
p2746
sS'XR_425736'
p2747
S' PREDICTED: Homo sapiens uncharacterized LOC102724598 (LOC102724598), ncRNA'
p2748
sS'XR_425735'
p2749
S' PREDICTED: Homo sapiens uncharacterized LOC101928815 (LOC101928815), transcript variant X3, ncRNA'
p2750
sS'XR_425734'
p2751
S' PREDICTED: Homo sapiens uncharacterized LOC101928815 (LOC101928815), transcript variant X2, ncRNA'
p2752
s.