(dp0
S'XR_425045'
p1
S'578794460'
p2
sS'XR_425044'
p3
S'578794459'
p4
sS'XR_425047'
p5
S'578794462'
p6
sS'XR_425046'
p7
S'578794461'
p8
sS'XR_425041'
p9
S'578794456'
p10
sS'XR_425040'
p11
S'578794454'
p12
sS'XR_425043'
p13
S'578794458'
p14
sS'XR_425042'
p15
S'578794457'
p16
sS'XR_425049'
p17
S'578794464'
p18
sS'XR_425048'
p19
S'578794463'
p20
sS'XR_249104'
p21
S'578794600'
p22
sS'XR_249105'
p23
S'530357626'
p24
sS'XR_249106'
p25
S'530357627'
p26
sS'XR_249107'
p27
S'530357628'
p28
sS'XR_249100'
p29
S'578794591'
p30
sS'XR_249101'
p31
S'530357620'
p32
sS'XR_249102'
p33
S'530357621'
p34
sS'XR_249103'
p35
S'578794599'
p36
sS'XM_006710082'
p37
S'578794421'
p38
sS'XM_006710080'
p39
S'578794416'
p40
sS'XM_006710081'
p41
S'578794418'
p42
sS'XR_249108'
p43
S'530357629'
p44
sS'XR_249109'
p45
S'530357630'
p46
sS'XR_112646'
p47
S'310114631'
p48
sS'XR_248670'
p49
S'530356999'
p50
sS'XR_248673'
p51
S'578794502'
p52
sS'NR_024456'
p53
S'213385260'
p54
sS'NR_033267'
p55
S'288541338'
p56
sS'XR_112464'
p57
S'530358004'
p58
sS'XR_112468'
p59
S'530358016'
p60
sS'XR_249078'
p61
S'530357589'
p62
sS'XR_249079'
p63
S'530357590'
p64
sS'NR_109880'
p65
S'567757627'
p66
sS'XR_249072'
p67
S'530357580'
p68
sS'XR_249073'
p69
S'530357583'
p70
sS'XR_249074'
p71
S'530357584'
p72
sS'XR_248709'
p73
S'578794535'
p74
sS'XR_249651'
p75
S'530358357'
p76
sS'XR_249654'
p77
S'578795209'
p78
sS'XR_249655'
p79
S'530358361'
p80
sS'XR_249656'
p81
S'578795211'
p82
sS'XR_248701'
p83
S'530357038'
p84
sS'XR_248700'
p85
S'530357036'
p86
sS'XR_248703'
p87
S'530357040'
p88
sS'XR_248705'
p89
S'530357042'
p90
sS'XR_248706'
p91
S'530357043'
p92
sS'NR_034062'
p93
S'300388191'
p94
sS'XR_249257'
p95
S'578794793'
p96
sS'XR_249252'
p97
S'530357838'
p98
sS'XR_249253'
p99
S'530357839'
p100
sS'XM_003960925'
p101
S'410170131'
p102
sS'NM_031454'
p103
S'32880228'
p104
sS'NM_001257362'
p105
S'383209669'
p106
sS'XR_249491'
p107
S'530358150'
p108
sS'XR_249497'
p109
S'530358156'
p110
sS'XR_249499'
p111
S'530358159'
p112
sS'XR_248850'
p113
S'530357246'
p114
sS'XR_248853'
p115
S'530357249'
p116
sS'XR_248855'
p117
S'578794384'
p118
sS'XR_248857'
p119
S'530357253'
p120
sS'XR_248856'
p121
S'530357252'
p122
sS'XR_248859'
p123
S'530357255'
p124
sS'NR_073512'
p125
S'428983472'
p126
sS'XR_159349'
p127
S'530357218'
p128
sS'XR_159346'
p129
S'578794241'
p130
sS'XR_159343'
p131
S'530357195'
p132
sS'NR_033244'
p133
S'284005198'
p134
sS'NR_033245'
p135
S'284005210'
p136
sS'NR_027761'
p137
S'239735538'
p138
sS'NR_037182'
p139
S'311893296'
p140
sS'XR_425548'
p141
S'578794862'
p142
sS'XR_425549'
p143
S'578794865'
p144
sS'XR_425540'
p145
S'578794846'
p146
sS'XR_425541'
p147
S'578794847'
p148
sS'XR_425542'
p149
S'578794848'
p150
sS'XR_425543'
p151
S'578794849'
p152
sS'XR_425544'
p153
S'578794850'
p154
sS'XR_425545'
p155
S'578794853'
p156
sS'XR_425546'
p157
S'578794854'
p158
sS'XR_425547'
p159
S'578794855'
p160
sS'XR_425610'
p161
S'578794962'
p162
sS'XR_425611'
p163
S'578794963'
p164
sS'XR_425612'
p165
S'578794964'
p166
sS'XR_425613'
p167
S'578794966'
p168
sS'XR_425614'
p169
S'578794971'
p170
sS'XR_425615'
p171
S'578794972'
p172
sS'XR_425616'
p173
S'578794974'
p174
sS'XR_425617'
p175
S'578794975'
p176
sS'XR_425618'
p177
S'578794979'
p178
sS'XR_425619'
p179
S'578794980'
p180
sS'XR_111974'
p181
S'530356970'
p182
sS'NM_001207043'
p183
S'333360917'
p184
sS'XR_425728'
p185
S'578795134'
p186
sS'XR_425729'
p187
S'578795136'
p188
sS'XR_425724'
p189
S'578795129'
p190
sS'XR_425725'
p191
S'578795131'
p192
sS'XR_425726'
p193
S'578795132'
p194
sS'XR_425727'
p195
S'578795133'
p196
sS'XR_425722'
p197
S'578795125'
p198
sS'XR_425723'
p199
S'578795126'
p200
sS'NR_102752'
p201
S'491231451'
p202
sS'XR_112078'
p203
S'578794237'
p204
sS'NR_026913'
p205
S'223941851'
p206
sS'XR_425056'
p207
S'578794477'
p208
sS'XR_425057'
p209
S'578794478'
p210
sS'XR_425054'
p211
S'578794474'
p212
sS'XR_425055'
p213
S'578794476'
p214
sS'XR_425052'
p215
S'578794472'
p216
sS'XR_425053'
p217
S'578794473'
p218
sS'XR_425050'
p219
S'578794470'
p220
sS'XR_425051'
p221
S'578794471'
p222
sS'XR_425058'
p223
S'578794479'
p224
sS'XR_425059'
p225
S'578794480'
p226
sS'XR_112671'
p227
S'530358365'
p228
sS'XR_248666'
p229
S'530356995'
p230
sS'XR_248667'
p231
S'530356996'
p232
sS'XR_248664'
p233
S'530356993'
p234
sS'NR_024443'
p235
S'380036031'
p236
sS'NR_024444'
p237
S'212720746'
p238
sS'XR_248660'
p239
S'530356989'
p240
sS'NR_024447'
p241
S'212720917'
p242
sS'XR_112452'
p243
S'310114340'
p244
sS'XR_112451'
p245
S'530357918'
p246
sS'XR_248668'
p247
S'578794499'
p248
sS'XR_249394'
p249
S'578794920'
p250
sS'XR_249396'
p251
S'530358024'
p252
sS'XR_249391'
p253
S'530358017'
p254
sS'XR_249390'
p255
S'578794918'
p256
sS'XR_249393'
p257
S'530358019'
p258
sS'XR_249392'
p259
S'530358018'
p260
sS'NR_024594'
p261
S'218156283'
p262
sS'XR_248718'
p263
S'530357060'
p264
sS'XR_249626'
p265
S'578795171'
p266
sS'XR_249621'
p267
S'530358322'
p268
sS'XR_249623'
p269
S'530358324'
p270
sS'XR_249084'
p271
S'530357597'
p272
sS'XR_248712'
p273
S'578794536'
p274
sS'XR_112523'
p275
S'530358094'
p276
sS'XR_425801'
p277
S'578795247'
p278
sS'NR_045375'
p279
S'354459364'
p280
sS'XR_425802'
p281
S'578795248'
p282
sS'XR_249538'
p283
S'530358207'
p284
sS'XR_249537'
p285
S'530358206'
p286
sS'XR_425663'
p287
S'578795041'
p288
sS'XR_248843'
p289
S'578794379'
p290
sS'XR_248840'
p291
S'530357233'
p292
sS'XR_248841'
p293
S'530357234'
p294
sS'XR_248848'
p295
S'578794382'
p296
sS'XR_425153'
p297
S'578794317'
p298
sS'XR_425620'
p299
S'578794982'
p300
sS'XR_425151'
p301
S'578794311'
p302
sS'XR_425625'
p303
S'578794987'
p304
sS'XR_425624'
p305
S'578794986'
p306
sS'XR_425627'
p307
S'578794989'
p308
sS'XR_425626'
p309
S'578794988'
p310
sS'XR_425441'
p311
S'578794701'
p312
sS'XR_425440'
p313
S'578794700'
p314
sS'XR_425443'
p315
S'578794703'
p316
sS'XR_425442'
p317
S'578794702'
p318
sS'XR_425445'
p319
S'578794710'
p320
sS'XR_425444'
p321
S'578794707'
p322
sS'XR_425447'
p323
S'578794712'
p324
sS'XR_425446'
p325
S'578794711'
p326
sS'XR_425449'
p327
S'578794714'
p328
sS'XR_425448'
p329
S'578794713'
p330
sS'NM_001040071'
p331
S'91206427'
p332
sS'NR_038359'
p333
S'335057516'
p334
sS'XR_425539'
p335
S'578794845'
p336
sS'NR_033871'
p337
S'299829288'
p338
sS'XR_425534'
p339
S'578794837'
p340
sS'XR_425537'
p341
S'578794842'
p342
sS'XR_425536'
p343
S'578794839'
p344
sS'XR_425531'
p345
S'578794834'
p346
sS'XR_425530'
p347
S'578794830'
p348
sS'XR_425533'
p349
S'578794836'
p350
sS'XR_425532'
p351
S'578794835'
p352
sS'XR_425197'
p353
S'578794369'
p354
sS'XR_425664'
p355
S'578795042'
p356
sS'XR_425667'
p357
S'578795045'
p358
sS'XR_425194'
p359
S'578794361'
p360
sS'XR_425193'
p361
S'578794360'
p362
sS'XR_425192'
p363
S'578794359'
p364
sS'XR_425191'
p365
S'578794358'
p366
sS'XR_425190'
p367
S'578794357'
p368
sS'XR_425669'
p369
S'578795047'
p370
sS'XR_425199'
p371
S'578794373'
p372
sS'XR_425198'
p373
S'578794371'
p374
sS'XM_005275879'
p375
S'530357133'
p376
sS'XM_005275876'
p377
S'530357115'
p378
sS'XM_005275875'
p379
S'530357110'
p380
sS'NR_045207'
p381
S'349585117'
p382
sS'XR_159398'
p383
S'578794802'
p384
sS'XR_249650'
p385
S'530358356'
p386
sS'XR_425068'
p387
S'578794492'
p388
sS'XR_425063'
p389
S'578794486'
p390
sS'XR_425062'
p391
S'578794484'
p392
sS'XR_425061'
p393
S'578794483'
p394
sS'XR_425060'
p395
S'578794481'
p396
sS'XR_425067'
p397
S'578794491'
p398
sS'XR_425066'
p399
S'578794490'
p400
sS'XR_425065'
p401
S'578794489'
p402
sS'XR_425064'
p403
S'578794487'
p404
sS'XM_006710154'
p405
S'578795028'
p406
sS'XM_006710155'
p407
S'578795075'
p408
sS'XM_006710157'
p409
S'578795099'
p410
sS'XM_006710152'
p411
S'578795000'
p412
sS'XM_006710153'
p413
S'578795004'
p414
sS'XM_006710158'
p415
S'578795175'
p416
sS'XM_006710159'
p417
S'578795177'
p418
sS'XR_249659'
p419
S'530358366'
p420
sS'NR_024618'
p421
S'218931218'
p422
sS'XR_112442'
p423
S'530357898'
p424
sS'XR_112513'
p425
S'530358065'
p426
sS'XR_249386'
p427
S'530358009'
p428
sS'XR_249387'
p429
S'578794915'
p430
sS'XR_249385'
p431
S'578794912'
p432
sS'XR_249382'
p433
S'530358003'
p434
sS'XR_249383'
p435
S'530358006'
p436
sS'XR_249381'
p437
S'530357997'
p438
sS'XR_249635'
p439
S'578795186'
p440
sS'XR_249632'
p441
S'578795181'
p442
sS'XR_249633'
p443
S'578795183'
p444
sS'XR_248728'
p445
S'578794548'
p446
sS'XR_248727'
p447
S'530357071'
p448
sS'XR_248724'
p449
S'530357068'
p450
sS'XR_248723'
p451
S'530357067'
p452
sS'XR_248722'
p453
S'530357066'
p454
sS'XR_249639'
p455
S'530358343'
p456
sS'XR_248659'
p457
S'530356988'
p458
sS'XR_248658'
p459
S'530356987'
p460
sS'XR_248651'
p461
S'578794485'
p462
sS'XR_248650'
p463
S'578794482'
p464
sS'XR_248655'
p465
S'578794488'
p466
sS'XR_248654'
p467
S'530356983'
p468
sS'NR_003539'
p469
S'148225708'
p470
sS'XR_249526'
p471
S'530358191'
p472
sS'XR_249527'
p473
S'578795054'
p474
sS'XR_249524'
p475
S'530358187'
p476
sS'XR_249525'
p477
S'578795050'
p478
sS'NM_001089591'
p479
S'148229490'
p480
sS'XR_248870'
p481
S'530357268'
p482
sS'NR_104602'
p483
S'558516032'
p484
sS'XR_248879'
p485
S'578794409'
p486
sS'XR_248878'
p487
S'530357276'
p488
sS'XR_249319'
p489
S'530357910'
p490
sS'XR_249318'
p491
S'530357909'
p492
sS'NR_026541'
p493
S'219842206'
p494
sS'NR_003713'
p495
S'157266267'
p496
sS'XR_249429'
p497
S'530358067'
p498
sS'XR_249428'
p499
S'578794960'
p500
sS'XR_425452'
p501
S'578794717'
p502
sS'XR_425453'
p503
S'578794718'
p504
sS'XR_425450'
p505
S'578794715'
p506
sS'XR_425451'
p507
S'578794716'
p508
sS'XR_425456'
p509
S'578794725'
p510
sS'XR_425457'
p511
S'578794726'
p512
sS'XR_425454'
p513
S'578794719'
p514
sS'XR_425455'
p515
S'578794720'
p516
sS'XR_425458'
p517
S'578794727'
p518
sS'XR_425459'
p519
S'578794728'
p520
sS'XR_249421'
p521
S'530358058'
p522
sS'NR_003665'
p523
S'153792508'
p524
sS'XR_425528'
p525
S'578794827'
p526
sS'XR_425529'
p527
S'578794828'
p528
sS'XR_425526'
p529
S'578794823'
p530
sS'XR_425527'
p531
S'578794825'
p532
sS'XR_425525'
p533
S'578794822'
p534
sS'NR_033866'
p535
S'299782609'
p536
sS'XR_425523'
p537
S'578794819'
p538
sS'XR_425520'
p539
S'578794816'
p540
sS'XR_425676'
p541
S'578795057'
p542
sS'NM_001004352'
p543
S'338797695'
p544
sS'XR_425674'
p545
S'578795055'
p546
sS'XR_425675'
p547
S'578795056'
p548
sS'XR_425672'
p549
S'578795051'
p550
sS'XR_425673'
p551
S'578795053'
p552
sS'XR_425671'
p553
S'578795049'
p554
sS'XR_425678'
p555
S'578795059'
p556
sS'XR_425679'
p557
S'578795060'
p558
sS'NM_001101330'
p559
S'157412239'
p560
sS'XM_005275863'
p561
S'578794455'
p562
sS'XM_005275869'
p563
S'530357052'
p564
sS'XM_005275868'
p565
S'530357006'
p566
sS'NR_027142'
p567
S'310923205'
p568
sS'NM_177422'
p569
S'324073531'
p570
sS'XR_159383'
p571
S'530357634'
p572
sS'XR_159387'
p573
S'530357690'
p574
sS'XR_425079'
p575
S'578794504'
p576
sS'XR_425074'
p577
S'578794498'
p578
sS'XR_425075'
p579
S'578794500'
p580
sS'XR_425076'
p581
S'578794501'
p582
sS'XR_425077'
p583
S'578794503'
p584
sS'XR_425070'
p585
S'578794494'
p586
sS'XR_425071'
p587
S'578794495'
p588
sS'XR_425072'
p589
S'578794496'
p590
sS'XR_425073'
p591
S'578794497'
p592
sS'XM_006710147'
p593
S'578794902'
p594
sS'XM_006710146'
p595
S'578794870'
p596
sS'XM_006710145'
p597
S'578794868'
p598
sS'XM_006710144'
p599
S'578794860'
p600
sS'XM_006710142'
p601
S'578794856'
p602
sS'XM_006710141'
p603
S'578794831'
p604
sS'XM_006710140'
p605
S'578794754'
p606
sS'XM_006710149'
p607
S'578794947'
p608
sS'XM_006710148'
p609
S'578794945'
p610
sS'XR_425522'
p611
S'578794818'
p612
sS'XR_425188'
p613
S'578794355'
p614
sS'XR_425189'
p615
S'578794356'
p616
sS'XR_425180'
p617
S'578794345'
p618
sS'XR_425181'
p619
S'578794346'
p620
sS'XR_425182'
p621
S'578794347'
p622
sS'XR_425183'
p623
S'578794348'
p624
sS'XR_425184'
p625
S'578794350'
p626
sS'XR_425185'
p627
S'578794351'
p628
sS'XR_425186'
p629
S'578794352'
p630
sS'XR_425187'
p631
S'578794354'
p632
sS'XR_249228'
p633
S'530357810'
p634
sS'XM_005275949'
p635
S'530358077'
p636
sS'XM_005275947'
p637
S'530358047'
p638
sS'XM_005275942'
p639
S'530357998'
p640
sS'XR_112304'
p641
S'530357623'
p642
sS'XR_425771'
p643
S'578795208'
p644
sS'XR_425770'
p645
S'578795207'
p646
sS'XM_001715471'
p647
S'578794445'
p648
sS'XR_248730'
p649
S'578794549'
p650
sS'XR_248731'
p651
S'530357075'
p652
sS'XR_248737'
p653
S'530357082'
p654
sS'XR_248739'
p655
S'530357084'
p656
sS'XR_112396'
p657
S'310114251'
p658
sS'XR_112543'
p659
S'530358128'
p660
sS'XR_249287'
p661
S'578794812'
p662
sS'XR_249286'
p663
S'530357873'
p664
sS'XR_249289'
p665
S'578794815'
p666
sS'XR_249288'
p667
S'578794814'
p668
sS'XR_248649'
p669
S'530356978'
p670
sS'XR_248644'
p671
S'530356972'
p672
sS'XR_248645'
p673
S'530356973'
p674
sS'XR_248646'
p675
S'530356974'
p676
sS'XR_248647'
p677
S'530356975'
p678
sS'XR_248640'
p679
S'530356967'
p680
sS'XR_248643'
p681
S'578794475'
p682
sS'XR_249518'
p683
S'530358181'
p684
sS'XR_249517'
p685
S'530358180'
p686
sS'XR_249514'
p687
S'530358177'
p688
sS'XR_249512'
p689
S'530358175'
p690
sS'NR_026740'
p691
S'222831626'
p692
sS'XR_249608'
p693
S'578795158'
p694
sS'XR_249603'
p695
S'578795151'
p696
sS'XR_249602'
p697
S'578795149'
p698
sS'XR_249353'
p699
S'578794885'
p700
sS'XR_249352'
p701
S'578794884'
p702
sS'XR_249607'
p703
S'530358306'
p704
sS'XR_249606'
p705
S'530358305'
p706
sS'XR_249604'
p707
S'578795150'
p708
sS'XR_248868'
p709
S'578794393'
p710
sS'XR_248869'
p711
S'578794394'
p712
sS'XM_003846653'
p713
S'530357735'
p714
sS'XR_248861'
p715
S'530357257'
p716
sS'XR_248862'
p717
S'578794388'
p718
sS'XR_248864'
p719
S'530357260'
p720
sS'NR_026806'
p721
S'223468703'
p722
sS'NR_033981'
p723
S'300116239'
p724
sS'XR_425467'
p725
S'578794741'
p726
sS'XR_425466'
p727
S'578794740'
p728
sS'XR_425465'
p729
S'578794739'
p730
sS'XR_425464'
p731
S'578794738'
p732
sS'XR_425463'
p733
S'578794737'
p734
sS'XR_425462'
p735
S'578794734'
p736
sS'XR_425461'
p737
S'578794732'
p738
sS'XR_425460'
p739
S'578794730'
p740
sS'XR_425469'
p741
S'578794743'
p742
sS'XR_425468'
p743
S'578794742'
p744
sS'XM_003119777'
p745
S'530357058'
p746
sS'XR_425513'
p747
S'578794806'
p748
sS'XR_425512'
p749
S'578794805'
p750
sS'XR_425511'
p751
S'578794804'
p752
sS'XR_425510'
p753
S'578794803'
p754
sS'XR_425517'
p755
S'578794810'
p756
sS'XR_425516'
p757
S'578794809'
p758
sS'NR_038379'
p759
S'335353789'
p760
sS'XR_425514'
p761
S'578794807'
p762
sS'XR_425519'
p763
S'578794813'
p764
sS'XR_425518'
p765
S'578794811'
p766
sS'XR_425081'
p767
S'578794506'
p768
sS'XR_425080'
p769
S'578794505'
p770
sS'XR_425083'
p771
S'578794508'
p772
sS'XR_425082'
p773
S'578794507'
p774
sS'XR_425085'
p775
S'578794510'
p776
sS'XR_425084'
p777
S'578794509'
p778
sS'XR_425087'
p779
S'578794512'
p780
sS'XR_425086'
p781
S'578794511'
p782
sS'XR_425089'
p783
S'578794516'
p784
sS'XR_425088'
p785
S'578794515'
p786
sS'XM_005275929'
p787
S'530357771'
p788
sS'XM_005275924'
p789
S'578794696'
p790
sS'XM_005275925'
p791
S'578794721'
p792
sS'XM_005275926'
p793
S'530357750'
p794
sS'XM_005275927'
p795
S'530357758'
p796
sS'XM_005275922'
p797
S'578794663'
p798
sS'NR_027046'
p799
S'224451046'
p800
sS'XR_133382'
p801
S'530358397'
p802
sS'XR_425648'
p803
S'578795022'
p804
sS'XR_425643'
p805
S'578795015'
p806
sS'XR_425642'
p807
S'578795014'
p808
sS'XR_425641'
p809
S'578795013'
p810
sS'XR_425640'
p811
S'578795012'
p812
sS'XR_425647'
p813
S'578795021'
p814
sS'XR_425646'
p815
S'578795020'
p816
sS'XR_425645'
p817
S'578795019'
p818
sS'XR_425644'
p819
S'578795018'
p820
sS'XR_112044'
p821
S'530357112'
p822
sS'XR_112312'
p823
S'310114136'
p824
sS'XM_001717423'
p825
S'578795173'
p826
sS'NR_015447'
p827
S'218505808'
p828
sS'NR_015441'
p829
S'210147586'
p830
sS'XR_248745'
p831
S'530357093'
p832
sS'XR_248744'
p833
S'530357092'
p834
sS'XR_248747'
p835
S'530357095'
p836
sS'XR_248746'
p837
S'530357094'
p838
sS'XR_248741'
p839
S'530357088'
p840
sS'XR_248740'
p841
S'530357087'
p842
sS'NR_024569'
p843
S'217272881'
p844
sS'XR_248742'
p845
S'530357090'
p846
sS'XR_248749'
p847
S'530357103'
p848
sS'XR_248748'
p849
S'578794275'
p850
sS'XR_249298'
p851
S'530357886'
p852
sS'XR_249299'
p853
S'530357887'
p854
sS'XR_249293'
p855
S'578794820'
p856
sS'XR_249295'
p857
S'530357882'
p858
sS'XR_249296'
p859
S'578794824'
p860
sS'XR_249297'
p861
S'530357885'
p862
sS'XM_001727011'
p863
S'530357610'
p864
sS'NR_024418'
p865
S'212286160'
p866
sS'NR_024413'
p867
S'212276331'
p868
sS'XR_249500'
p869
S'530358160'
p870
sS'XR_249504'
p871
S'530358166'
p872
sS'XR_249505'
p873
S'530358167'
p874
sS'XR_249507'
p875
S'530358169'
p876
sS'XR_249509'
p877
S'578795040'
p878
sS'XR_249349'
p879
S'530357959'
p880
sS'XR_249618'
p881
S'530358319'
p882
sS'XR_249342'
p883
S'578794876'
p884
sS'XR_249615'
p885
S'578795161'
p886
sS'XR_249340'
p887
S'530357947'
p888
sS'XR_249617'
p889
S'530358318'
p890
sS'NR_024563'
p891
S'217035108'
p892
sS'XR_249611'
p893
S'530358312'
p894
sS'XR_249612'
p895
S'530358313'
p896
sS'XR_249613'
p897
S'530358314'
p898
sS'XR_248814'
p899
S'530357197'
p900
sS'XR_248816'
p901
S'530357200'
p902
sS'XR_248811'
p903
S'530357190'
p904
sS'XM_003846648'
p905
S'530357660'
p906
sS'XR_425803'
p907
S'578795249'
p908
sS'NR_024278'
p909
S'210147393'
p910
sS'XR_425504'
p911
S'578794790'
p912
sS'XR_425505'
p913
S'578794791'
p914
sS'XR_425506'
p915
S'578794792'
p916
sS'XR_425507'
p917
S'578794794'
p918
sS'XR_425500'
p919
S'578794786'
p920
sS'XR_425501'
p921
S'578794787'
p922
sS'XR_425502'
p923
S'578794788'
p924
sS'XR_425503'
p925
S'578794789'
p926
sS'XR_425508'
p927
S'578794795'
p928
sS'XR_425509'
p929
S'578794796'
p930
sS'NR_036490'
p931
S'302318971'
p932
sS'XR_111936'
p933
S'530356928'
p934
sS'NM_001242853'
p935
S'338827741'
p936
sS'XR_425478'
p937
S'578794760'
p938
sS'XR_425479'
p939
S'578794761'
p940
sS'XR_425470'
p941
S'578794744'
p942
sS'XR_425472'
p943
S'578794751'
p944
sS'XR_425473'
p945
S'578794753'
p946
sS'XR_425474'
p947
S'578794756'
p948
sS'XR_425475'
p949
S'578794757'
p950
sS'XR_425477'
p951
S'578794759'
p952
sS'XR_425091'
p953
S'578794519'
p954
sS'XR_425097'
p955
S'578794527'
p956
sS'XR_425095'
p957
S'578794523'
p958
sS'XR_425098'
p959
S'578794528'
p960
sS'XR_425099'
p961
S'578794529'
p962
sS'XM_006710160'
p963
S'578795196'
p964
sS'XM_005275938'
p965
S'530357934'
p966
sS'XM_005275937'
p967
S'578794864'
p968
sS'XM_005275934'
p969
S'530357784'
p970
sS'XM_005275933'
p971
S'578794749'
p972
sS'XM_005275932'
p973
S'530357778'
p974
sS'XM_005275931'
p975
S'578794747'
p976
sS'XM_005275930'
p977
S'530357773'
p978
sS'XR_425658'
p979
S'578795035'
p980
sS'XR_425659'
p981
S'578795036'
p982
sS'XR_425654'
p983
S'578795031'
p984
sS'XR_425656'
p985
S'578795033'
p986
sS'XR_425650'
p987
S'578795024'
p988
sS'XR_425651'
p989
S'578795026'
p990
sS'XR_425652'
p991
S'578795027'
p992
sS'XR_425653'
p993
S'578795030'
p994
sS'XR_133353'
p995
S'530358127'
p996
sS'NR_036475'
p997
S'308081820'
p998
sS'XR_112030'
p999
S'578794553'
p1000
sS'XR_112363'
p1001
S'310114203'
p1002
sS'NR_109870'
p1003
S'567757623'
p1004
sS'XR_248757'
p1005
S'530357119'
p1006
sS'XR_248752'
p1007
S'530357108'
p1008
sS'XR_248750'
p1009
S'578794277'
p1010
sS'XR_425751'
p1011
S'578795172'
p1012
sS'NR_024409'
p1013
S'228480224'
p1014
sS'XR_425743'
p1015
S'578795159'
p1016
sS'XR_425750'
p1017
S'578795170'
p1018
sS'XR_249192'
p1019
S'530357749'
p1020
sS'XR_249191'
p1021
S'578794731'
p1022
sS'XR_249190'
p1023
S'578794729'
p1024
sS'XR_249196'
p1025
S'530357755'
p1026
sS'XR_249195'
p1027
S'578794735'
p1028
sS'XR_249194'
p1029
S'578794736'
p1030
sS'XR_249575'
p1031
S'530358269'
p1032
sS'XR_249577'
p1033
S'530358271'
p1034
sS'XR_249570'
p1035
S'578795111'
p1036
sS'XR_249572'
p1037
S'578795112'
p1038
sS'XR_425755'
p1039
S'578795187'
p1040
sS'XR_425754'
p1041
S'578795185'
p1042
sS'XR_425757'
p1043
S'578795191'
p1044
sS'XM_006710139'
p1045
S'578794722'
p1046
sS'XR_249379'
p1047
S'578794905'
p1048
sS'XR_249375'
p1049
S'578794897'
p1050
sS'XR_249373'
p1051
S'530357984'
p1052
sS'XR_249371'
p1053
S'530357982'
p1054
sS'XR_249370'
p1055
S'530357981'
p1056
sS'XR_249409'
p1057
S'530358038'
p1058
sS'XR_249408'
p1059
S'530358037'
p1060
sS'NR_110160'
p1061
S'571330854'
p1062
sS'XR_248806'
p1063
S'530357185'
p1064
sS'XR_249403'
p1065
S'530358032'
p1066
sS'XR_248805'
p1067
S'578794334'
p1068
sS'XR_249405'
p1069
S'578794936'
p1070
sS'XR_249404'
p1071
S'578794935'
p1072
sS'XR_249407'
p1073
S'578794937'
p1074
sS'XR_249406'
p1075
S'578794939'
p1076
sS'NR_104673'
p1077
S'559098524'
p1078
sS'XR_425747'
p1079
S'578795166'
p1080
sS'NR_027288'
p1081
S'224967097'
p1082
sS'NR_027442'
p1083
S'226054055'
p1084
sS'XM_003403772'
p1085
S'578795002'
p1086
sS'NR_038424'
p1087
S'336088670'
p1088
sS'XR_425799'
p1089
S'578795245'
p1090
sS'XR_425798'
p1091
S'578795244'
p1092
sS'XR_425795'
p1093
S'578795241'
p1094
sS'XR_425794'
p1095
S'578795240'
p1096
sS'XR_425797'
p1097
S'578795243'
p1098
sS'XR_425796'
p1099
S'578795242'
p1100
sS'XR_425791'
p1101
S'578795237'
p1102
sS'XR_425790'
p1103
S'578795235'
p1104
sS'XR_425793'
p1105
S'578795239'
p1106
sS'XR_425792'
p1107
S'578795238'
p1108
sS'XR_425408'
p1109
S'578794635'
p1110
sS'XR_425405'
p1111
S'578794631'
p1112
sS'XR_425404'
p1113
S'578794630'
p1114
sS'XR_425407'
p1115
S'578794633'
p1116
sS'XR_425406'
p1117
S'578794632'
p1118
sS'XR_425401'
p1119
S'578794624'
p1120
sS'XR_425400'
p1121
S'578794623'
p1122
sS'XR_425403'
p1123
S'578794629'
p1124
sS'XR_425225'
p1125
S'578794243'
p1126
sS'XR_425224'
p1127
S'578794420'
p1128
sS'XR_425221'
p1129
S'578794407'
p1130
sS'XR_425220'
p1131
S'578794406'
p1132
sS'XR_425223'
p1133
S'578794242'
p1134
sS'XR_425222'
p1135
S'578794408'
p1136
sS'XR_425139'
p1137
S'578794298'
p1138
sS'XR_425138'
p1139
S'578794297'
p1140
sS'XR_425131'
p1141
S'578794288'
p1142
sS'XR_425130'
p1143
S'578794287'
p1144
sS'XR_425133'
p1145
S'578794290'
p1146
sS'XR_425132'
p1147
S'578794289'
p1148
sS'XR_425135'
p1149
S'578794294'
p1150
sS'XR_425134'
p1151
S'578794293'
p1152
sS'XR_425137'
p1153
S'578794296'
p1154
sS'XR_425136'
p1155
S'578794295'
p1156
sS'XM_006710059'
p1157
S'578794423'
p1158
sS'XR_133296'
p1159
S'530357618'
p1160
sS'XR_112023'
p1161
S'530357078'
p1162
sS'XR_112377'
p1163
S'530357757'
p1164
sS'XR_112370'
p1165
S'530357738'
p1166
sS'NR_103470'
p1167
S'509155866'
p1168
sS'XR_425568'
p1169
S'578794896'
p1170
sS'NR_046102'
p1171
S'373938422'
p1172
sS'XR_112571'
p1173
S'530358189'
p1174
sS'NR_038958'
p1175
S'337299699'
p1176
sS'NR_000026'
p1177
S'22546031'
p1178
sS'XR_248697'
p1179
S'530357033'
p1180
sS'XR_249188'
p1181
S'578794724'
p1182
sS'XR_248692'
p1183
S'578794518'
p1184
sS'XR_248690'
p1185
S'530357026'
p1186
sS'XR_249184'
p1187
S'578794706'
p1188
sS'XR_249185'
p1189
S'530357736'
p1190
sS'XR_112482'
p1191
S'310114434'
p1192
sS'XR_249181'
p1193
S'530357731'
p1194
sS'XR_249182'
p1195
S'578794704'
p1196
sS'XR_249183'
p1197
S'578794705'
p1198
sS'XR_249566'
p1199
S'578795104'
p1200
sS'XR_249565'
p1201
S'530358258'
p1202
sS'XR_249563'
p1203
S'530358253'
p1204
sS'XR_249560'
p1205
S'578795102'
p1206
sS'XR_249568'
p1207
S'530358262'
p1208
sS'XM_006710125'
p1209
S'578794559'
p1210
sS'XR_249363'
p1211
S'530357974'
p1212
sS'XR_249364'
p1213
S'578794889'
p1214
sS'XR_249365'
p1215
S'530357976'
p1216
sS'XR_249367'
p1217
S'530357978'
p1218
sS'XR_248763'
p1219
S'578794292'
p1220
sS'XR_249369'
p1221
S'530357980'
p1222
sS'XR_248760'
p1223
S'530357122'
p1224
sS'XR_248833'
p1225
S'530357226'
p1226
sS'XR_248832'
p1227
S'578794366'
p1228
sS'XR_248831'
p1229
S'578794364'
p1230
sS'XR_249419'
p1231
S'578794953'
p1232
sS'XR_248836'
p1233
S'530357229'
p1234
sS'XR_248834'
p1235
S'530357227'
p1236
sS'XR_248839'
p1237
S'578794372'
p1238
sS'XR_249411'
p1239
S'530358040'
p1240
sS'NM_001242750'
p1241
S'337299048'
p1242
sS'NR_026929'
p1243
S'223941934'
p1244
sS'XM_003846668'
p1245
S'530358075'
p1246
sS'XM_003846667'
p1247
S'530358022'
p1248
sS'XR_425756'
p1249
S'578795189'
p1250
sS'NM_001077637'
p1251
S'117938298'
p1252
sS'XM_003403761'
p1253
S'530357922'
p1254
sS'NM_001144931'
p1255
S'222136648'
p1256
sS'XR_111915'
p1257
S'578794426'
p1258
sS'XR_425788'
p1259
S'578795232'
p1260
sS'XR_425789'
p1261
S'578795234'
p1262
sS'XR_425786'
p1263
S'578795230'
p1264
sS'XR_425787'
p1265
S'578795231'
p1266
sS'XR_425784'
p1267
S'578795225'
p1268
sS'XR_425785'
p1269
S'578795226'
p1270
sS'XR_425782'
p1271
S'578795223'
p1272
sS'XR_425783'
p1273
S'578795224'
p1274
sS'XR_425780'
p1275
S'578795220'
p1276
sS'XR_425781'
p1277
S'578795221'
p1278
sS'XR_425418'
p1279
S'578794650'
p1280
sS'XR_425419'
p1281
S'578794651'
p1282
sS'XR_425416'
p1283
S'578794647'
p1284
sS'XR_425417'
p1285
S'578794648'
p1286
sS'XR_425414'
p1287
S'578794645'
p1288
sS'XR_425415'
p1289
S'578794646'
p1290
sS'XR_425412'
p1291
S'578794640'
p1292
sS'XR_425413'
p1293
S'578794644'
p1294
sS'XR_425410'
p1295
S'578794638'
p1296
sS'XR_425411'
p1297
S'578794639'
p1298
sS'XM_005275915'
p1299
S'530357570'
p1300
sS'XM_005275919'
p1301
S'578794634'
p1302
sS'XM_005275918'
p1303
S'530357608'
p1304
sS'XR_249354'
p1305
S'530357965'
p1306
sS'XR_425491'
p1307
S'578794777'
p1308
sS'XR_425128'
p1309
S'578794285'
p1310
sS'XR_425122'
p1311
S'578794267'
p1312
sS'XR_425123'
p1313
S'578794268'
p1314
sS'XR_425120'
p1315
S'578794557'
p1316
sS'XR_425121'
p1317
S'578794558'
p1318
sS'XR_425126'
p1319
S'578794276'
p1320
sS'XR_425127'
p1321
S'578794284'
p1322
sS'XR_425124'
p1323
S'578794273'
p1324
sS'XR_425125'
p1325
S'578794274'
p1326
sS'XR_112011'
p1327
S'530357037'
p1328
sS'NR_024372'
p1329
S'211938451'
p1330
sS'NR_024374'
p1331
S'211938459'
p1332
sS'NR_038891'
p1333
S'336455103'
p1334
sS'NR_046285'
p1335
S'374671831'
p1336
sS'NR_049748'
p1337
S'387942433'
p1338
sS'NR_024440'
p1339
S'212549757'
p1340
sS'XR_249087'
p1341
S'530357600'
p1342
sS'XR_249086'
p1343
S'578794575'
p1344
sS'XR_249083'
p1345
S'578794572'
p1346
sS'XR_249089'
p1347
S'530357602'
p1348
sS'XR_112596'
p1349
S'578795073'
p1350
sS'XR_248688'
p1351
S'578794514'
p1352
sS'XR_248689'
p1353
S'530357025'
p1354
sS'NR_038942'
p1355
S'336595103'
p1356
sS'XR_248684'
p1357
S'530357020'
p1358
sS'XR_248686'
p1359
S'578794513'
p1360
sS'XR_248687'
p1361
S'530357023'
p1362
sS'XR_249170'
p1363
S'530357714'
p1364
sS'XR_249175'
p1365
S'530357725'
p1366
sS'XR_249174'
p1367
S'578794699'
p1368
sS'XR_249177'
p1369
S'530357727'
p1370
sS'XR_112323'
p1371
S'530357649'
p1372
sS'XR_112327'
p1373
S'578794626'
p1374
sS'XR_249315'
p1375
S'578794844'
p1376
sS'XR_249314'
p1377
S'578794841'
p1378
sS'XR_249317'
p1379
S'530357908'
p1380
sS'XR_249316'
p1381
S'530357907'
p1382
sS'XR_249311'
p1383
S'530357900'
p1384
sS'XR_249310'
p1385
S'530357899'
p1386
sS'XR_249313'
p1387
S'578794840'
p1388
sS'XR_248776'
p1389
S'530357152'
p1390
sS'XR_248777'
p1391
S'530357153'
p1392
sS'XR_248770'
p1393
S'530357142'
p1394
sS'XR_248771'
p1395
S'578794303'
p1396
sS'XR_248772'
p1397
S'530357144'
p1398
sS'XR_248773'
p1399
S'530357145'
p1400
sS'XR_248825'
p1401
S'578794353'
p1402
sS'XR_248826'
p1403
S'530357217'
p1404
sS'XR_248827'
p1405
S'530357219'
p1406
sS'XR_248822'
p1407
S'530357212'
p1408
sS'XR_248823'
p1409
S'530357213'
p1410
sS'NR_104654'
p1411
S'559098516'
p1412
sS'XR_249425'
p1413
S'530358062'
p1414
sS'XR_249424'
p1415
S'578794957'
p1416
sS'XR_248828'
p1417
S'530357220'
p1418
sS'NR_104652'
p1419
S'559098517'
p1420
sS'NR_040013'
p1421
S'338753382'
p1422
sS'XR_112694'
p1423
S'310114698'
p1424
sS'XR_425632'
p1425
S'578794995'
p1426
sS'XR_249558'
p1427
S'578795093'
p1428
sS'XR_425145'
p1429
S'578794305'
p1430
sS'XR_249553'
p1431
S'578795086'
p1432
sS'XR_249557'
p1433
S'578795090'
p1434
sS'XR_249556'
p1435
S'530358235'
p1436
sS'XR_249555'
p1437
S'530358234'
p1438
sS'XR_425147'
p1439
S'578794307'
p1440
sS'XR_425140'
p1441
S'578794299'
p1442
sS'XR_425141'
p1443
S'578794300'
p1444
sS'XR_425142'
p1445
S'578794301'
p1446
sS'XR_425143'
p1447
S'578794302'
p1448
sS'NR_003580'
p1449
S'395394002'
p1450
sS'XM_003403755'
p1451
S'578794674'
p1452
sS'XR_425423'
p1453
S'578794659'
p1454
sS'XR_425422'
p1455
S'578794658'
p1456
sS'XR_425421'
p1457
S'578794657'
p1458
sS'XR_425420'
p1459
S'578794655'
p1460
sS'XR_425427'
p1461
S'578794677'
p1462
sS'XR_425426'
p1463
S'578794676'
p1464
sS'XR_425425'
p1465
S'578794675'
p1466
sS'XR_425424'
p1467
S'578794662'
p1468
sS'XR_425429'
p1469
S'578794679'
p1470
sS'XR_425428'
p1471
S'578794678'
p1472
sS'XR_425759'
p1473
S'578795193'
p1474
sS'XR_425758'
p1475
S'578795192'
p1476
sS'XR_425209'
p1477
S'578794395'
p1478
sS'XR_425208'
p1479
S'578794392'
p1480
sS'XM_006710132'
p1481
S'578794670'
p1482
sS'XM_006710133'
p1483
S'578794672'
p1484
sS'XM_006710130'
p1485
S'578794666'
p1486
sS'XM_006710131'
p1487
S'578794668'
p1488
sS'XR_425203'
p1489
S'578794386'
p1490
sS'XR_425202'
p1491
S'578794385'
p1492
sS'XR_425201'
p1493
S'578794380'
p1494
sS'XR_425200'
p1495
S'578794374'
p1496
sS'XR_425207'
p1497
S'578794391'
p1498
sS'XR_425206'
p1499
S'578794390'
p1500
sS'XR_425205'
p1501
S'578794389'
p1502
sS'XR_425204'
p1503
S'578794387'
p1504
sS'XM_005275960'
p1505
S'530358286'
p1506
sS'XM_005275961'
p1507
S'530358299'
p1508
sS'XM_005275962'
p1509
S'530358349'
p1510
sS'XM_005275963'
p1511
S'578795228'
p1512
sS'NR_027086'
p1513
S'224465245'
p1514
sS'XR_249622'
p1515
S'578795168'
p1516
sS'NR_037869'
p1517
S'323462195'
p1518
sS'XR_425687'
p1519
S'578795069'
p1520
sS'XR_425686'
p1521
S'578795068'
p1522
sS'XR_425685'
p1523
S'578795066'
p1524
sS'XR_425684'
p1525
S'578795065'
p1526
sS'XR_425683'
p1527
S'578795064'
p1528
sS'XR_425682'
p1529
S'578795063'
p1530
sS'XR_425681'
p1531
S'578795062'
p1532
sS'XR_425680'
p1533
S'578795061'
p1534
sS'XM_006710138'
p1535
S'578794708'
p1536
sS'XR_425689'
p1537
S'578795074'
p1538
sS'XR_425688'
p1539
S'578795070'
p1540
sS'XR_425119'
p1541
S'578794556'
p1542
sS'XR_425118'
p1543
S'578794555'
p1544
sS'XR_425117'
p1545
S'578794554'
p1546
sS'XR_425116'
p1547
S'578794552'
p1548
sS'XR_425115'
p1549
S'578794551'
p1550
sS'XR_425114'
p1551
S'578794550'
p1552
sS'XR_425113'
p1553
S'578794547'
p1554
sS'XR_425112'
p1555
S'578794546'
p1556
sS'XR_425110'
p1557
S'578794544'
p1558
sS'NM_001195272'
p1559
S'305632792'
p1560
sS'XR_249096'
p1561
S'530357614'
p1562
sS'XR_249094'
p1563
S'530357612'
p1564
sS'XR_249092'
p1565
S'530357606'
p1566
sS'XR_249098'
p1567
S'530357616'
p1568
sS'XR_249099'
p1569
S'530357617'
p1570
sS'NR_038935'
p1571
S'336595076'
p1572
sS'XR_249161'
p1573
S'530357693'
p1574
sS'XR_249166'
p1575
S'530357705'
p1576
sS'XR_249167'
p1577
S'578794656'
p1578
sS'XR_249164'
p1579
S'578794654'
p1580
sS'XR_249169'
p1581
S'530357708'
p1582
sS'NR_024237'
p1583
S'209862783'
p1584
sS'XR_248781'
p1585
S'530357159'
p1586
sS'XM_003119906'
p1587
S'530358108'
p1588
sS'XR_249306'
p1589
S'530357894'
p1590
sS'XR_249304'
p1591
S'578794829'
p1592
sS'XR_249305'
p1593
S'530357893'
p1594
sS'XR_248785'
p1595
S'578794315'
p1596
sS'XR_249301'
p1597
S'530357889'
p1598
sS'NR_024523'
p1599
S'214830808'
p1600
sS'XR_249302'
p1601
S'578794826'
p1602
sS'XR_249308'
p1603
S'578794833'
p1604
sS'XR_249432'
p1605
S'530358070'
p1606
sS'XR_249433'
p1607
S'530358071'
p1608
sS'XR_249434'
p1609
S'530358072'
p1610
sS'XR_249435'
p1611
S'578794965'
p1612
sS'XR_249436'
p1613
S'578794967'
p1614
sS'XR_249437'
p1615
S'578794968'
p1616
sS'XR_249438'
p1617
S'530358082'
p1618
sS'XR_249439'
p1619
S'530358083'
p1620
sS'XR_248786'
p1621
S'530357164'
p1622
sS'XR_249238'
p1623
S'578794762'
p1624
sS'NR_026900'
p1625
S'223890249'
p1626
sS'XR_249549'
p1627
S'530358221'
p1628
sS'XR_249544'
p1629
S'578795067'
p1630
sS'XR_249233'
p1631
S'530357816'
p1632
sS'XR_249546'
p1633
S'578795072'
p1634
sS'XR_249547'
p1635
S'530358218'
p1636
sS'XR_249540'
p1637
S'530358209'
p1638
sS'XR_249237'
p1639
S'530357820'
p1640
sS'NR_027471'
p1641
S'226423898'
p1642
sS'NR_038454'
p1643
S'336285246'
p1644
sS'XR_425434'
p1645
S'578794684'
p1646
sS'NR_033971'
p1647
S'300068930'
p1648
sS'NR_033797'
p1649
S'339895826'
p1650
sS'XR_425430'
p1651
S'578794680'
p1652
sS'XR_425431'
p1653
S'578794681'
p1654
sS'XR_425432'
p1655
S'578794682'
p1656
sS'XR_425433'
p1657
S'578794683'
p1658
sS'XR_425438'
p1659
S'578794697'
p1660
sS'XR_425748'
p1661
S'578795167'
p1662
sS'XR_425749'
p1663
S'578795169'
p1664
sS'XR_425218'
p1665
S'578794404'
p1666
sS'XR_425219'
p1667
S'578794405'
p1668
sS'XM_006710127'
p1669
S'578794652'
p1670
sS'XM_006710126'
p1671
S'578794568'
p1672
sS'XM_006710129'
p1673
S'578794664'
p1674
sS'XM_006710128'
p1675
S'578794660'
p1676
sS'XR_425740'
p1677
S'578795155'
p1678
sS'XR_425741'
p1679
S'578795156'
p1680
sS'XR_425210'
p1681
S'578794396'
p1682
sS'XR_425211'
p1683
S'578794397'
p1684
sS'XR_425212'
p1685
S'578794398'
p1686
sS'XR_425213'
p1687
S'578794399'
p1688
sS'NR_036504'
p1689
S'302393541'
p1690
sS'NR_036505'
p1691
S'302393543'
p1692
sS'XR_425698'
p1693
S'578795088'
p1694
sS'XR_425699'
p1695
S'578795094'
p1696
sS'XR_425690'
p1697
S'578795079'
p1698
sS'XR_425691'
p1699
S'578795080'
p1700
sS'XR_425692'
p1701
S'578795081'
p1702
sS'XR_425693'
p1703
S'578795082'
p1704
sS'XR_425694'
p1705
S'578795083'
p1706
sS'XR_425695'
p1707
S'578795084'
p1708
sS'XR_425697'
p1709
S'578795087'
p1710
sS'XR_425100'
p1711
S'578794530'
p1712
sS'XR_425101'
p1713
S'578794531'
p1714
sS'XR_425102'
p1715
S'578794532'
p1716
sS'XR_425103'
p1717
S'578794533'
p1718
sS'XR_425104'
p1719
S'578794534'
p1720
sS'XR_425105'
p1721
S'578794537'
p1722
sS'XR_425106'
p1723
S'578794538'
p1724
sS'XR_425107'
p1725
S'578794539'
p1726
sS'XR_425108'
p1727
S'578794541'
p1728
sS'XR_425109'
p1729
S'578794542'
p1730
sS'NR_103770'
p1731
S'515871367'
p1732
sS'NR_026901'
p1733
S'537544664'
p1734
sS'XM_005275951'
p1735
S'578795071'
p1736
sS'XR_249239'
p1737
S'530357822'
p1738
sS'XR_112616'
p1739
S'530358259'
p1740
sS'XR_249117'
p1741
S'578794607'
p1742
sS'XR_112294'
p1743
S'310114108'
p1744
sS'XR_249541'
p1745
S'530358210'
p1746
sS'XR_112106'
p1747
S'530357267'
p1748
sS'NR_106788'
p1749
S'563318536'
p1750
sS'NR_036611'
p1751
S'306518576'
p1752
sS'NR_046240'
p1753
S'374429561'
p1754
sS'XR_249151'
p1755
S'530357681'
p1756
sS'XR_249150'
p1757
S'578794643'
p1758
sS'NR_004846'
p1759
S'194097393'
p1760
sS'XR_249159'
p1761
S'578794649'
p1762
sS'XR_249158'
p1763
S'530357689'
p1764
sS'XR_425753'
p1765
S'578795184'
p1766
sS'XR_112436'
p1767
S'530357883'
p1768
sS'XR_249333'
p1769
S'578794874'
p1770
sS'XR_249332'
p1771
S'578794866'
p1772
sS'XR_249334'
p1773
S'530357941'
p1774
sS'XR_248798'
p1775
S'530357176'
p1776
sS'XR_248799'
p1777
S'530357177'
p1778
sS'XR_249445'
p1779
S'578794970'
p1780
sS'XR_249444'
p1781
S'530358088'
p1782
sS'XR_249440'
p1783
S'530358084'
p1784
sS'XR_249443'
p1785
S'578794969'
p1786
sS'NR_104630'
p1787
S'558757430'
p1788
sS'NR_026914'
p1789
S'223941865'
p1790
sS'XR_249208'
p1791
S'530357783'
p1792
sS'XR_249207'
p1793
S'530357782'
p1794
sS'NR_037665'
p1795
S'315221154'
p1796
sS'XR_159407'
p1797
S'397138220'
p1798
sS'XR_159406'
p1799
S'530358005'
p1800
sS'XR_159402'
p1801
S'530357954'
p1802
sS'NR_002144'
p1803
S'47174756'
p1804
sS'XR_425599'
p1805
S'578794942'
p1806
sS'XR_425593'
p1807
S'578794931'
p1808
sS'XR_425592'
p1809
S'578794930'
p1810
sS'XR_425591'
p1811
S'578794928'
p1812
sS'XR_425590'
p1813
S'578794927'
p1814
sS'XR_425597'
p1815
S'578794940'
p1816
sS'XR_425596'
p1817
S'578794938'
p1818
sS'XR_425595'
p1819
S'578794934'
p1820
sS'XR_425594'
p1821
S'578794932'
p1822
sS'NR_027313'
p1823
S'224809444'
p1824
sS'NR_027314'
p1825
S'224809445'
p1826
sS'NR_110415'
p1827
S'577861090'
p1828
sS'NR_110412'
p1829
S'577861091'
p1830
sS'NR_033909'
p1831
S'299829266'
p1832
sS'XR_425779'
p1833
S'578795219'
p1834
sS'XR_425778'
p1835
S'578795217'
p1836
sS'XR_425777'
p1837
S'578795216'
p1838
sS'XR_425776'
p1839
S'578795215'
p1840
sS'XR_425775'
p1841
S'578795214'
p1842
sS'XR_425774'
p1843
S'578795213'
p1844
sS'XR_425773'
p1845
S'578795212'
p1846
sS'XR_425772'
p1847
S'578795210'
p1848
sS'XM_005275940'
p1849
S'578794873'
p1850
sS'XM_005275941'
p1851
S'530357948'
p1852
sS'NR_036530'
p1853
S'302699227'
p1854
sS'NR_036539'
p1855
S'303304951'
p1856
sS'XR_425359'
p1857
S'578794571'
p1858
sS'XR_425358'
p1859
S'578794570'
p1860
sS'XR_425355'
p1861
S'578794565'
p1862
sS'XR_425354'
p1863
S'578794564'
p1864
sS'XR_425356'
p1865
S'578794566'
p1866
sS'XR_425353'
p1867
S'578794563'
p1868
sS'XR_425352'
p1869
S'578794562'
p1870
sS'XR_133304'
p1871
S'530357718'
p1872
sS'XR_133305'
p1873
S'530357721'
p1874
sS'XM_006710060'
p1875
S'578794427'
p1876
sS'XM_006710061'
p1877
S'578794251'
p1878
sS'XM_006710062'
p1879
S'578794253'
p1880
sS'XR_425175'
p1881
S'578794341'
p1882
sS'XR_425174'
p1883
S'578794340'
p1884
sS'XR_425176'
p1885
S'578794342'
p1886
sS'XR_425171'
p1887
S'578794337'
p1888
sS'XR_425170'
p1889
S'578794336'
p1890
sS'XR_425173'
p1891
S'578794339'
p1892
sS'XR_425172'
p1893
S'578794338'
p1894
sS'XR_425179'
p1895
S'578794344'
p1896
sS'XR_425178'
p1897
S'578794238'
p1898
sS'NR_027134'
p1899
S'224493888'
p1900
sS'NR_046098'
p1901
S'373838762'
p1902
sS'XR_133231'
p1903
S'341914248'
p1904
sS'XR_425009'
p1905
S'578794425'
p1906
sS'XR_425146'
p1907
S'578794306'
p1908
sS'XR_112288'
p1909
S'530357595'
p1910
sS'XR_112281'
p1911
S'310114097'
p1912
sS'XR_249148'
p1913
S'530357678'
p1914
sS'XR_249149'
p1915
S'578794642'
p1916
sS'XR_249142'
p1917
S'530357671'
p1918
sS'XR_249143'
p1919
S'530357672'
p1920
sS'XR_249144'
p1921
S'530357673'
p1922
sS'XR_249146'
p1923
S'530357675'
p1924
sS'XR_248639'
p1925
S'578794469'
p1926
sS'XR_248630'
p1927
S'530356948'
p1928
sS'XR_248633'
p1929
S'530356953'
p1930
sS'XR_248635'
p1931
S'530356955'
p1932
sS'XR_248637'
p1933
S'530356957'
p1934
sS'NR_034152'
p1935
S'300796389'
p1936
sS'XR_425515'
p1937
S'578794808'
p1938
sS'XR_249328'
p1939
S'578794863'
p1940
sS'XR_249324'
p1941
S'530357923'
p1942
sS'XR_249325'
p1943
S'530357924'
p1944
sS'XR_249326'
p1945
S'530357925'
p1946
sS'XR_249327'
p1947
S'530357926'
p1948
sS'XR_249320'
p1949
S'578794851'
p1950
sS'XR_249321'
p1951
S'578794852'
p1952
sS'XR_249323'
p1953
S'530357919'
p1954
sS'XR_249457'
p1955
S'578794976'
p1956
sS'XR_249454'
p1957
S'530358099'
p1958
sS'XR_249455'
p1959
S'578794973'
p1960
sS'XR_249453'
p1961
S'530358098'
p1962
sS'XR_249450'
p1963
S'530358095'
p1964
sS'XR_249458'
p1965
S'530358103'
p1966
sS'XR_249459'
p1967
S'578794977'
p1968
sS'XR_249211'
p1969
S'530357788'
p1970
sS'XR_249212'
p1971
S'578794752'
p1972
sS'XR_249216'
p1973
S'530357793'
p1974
sS'XR_249218'
p1975
S'530357795'
p1976
sS'XR_249219'
p1977
S'530357796'
p1978
sS'NR_026674'
p1979
S'221307589'
p1980
sS'XR_425214'
p1981
S'578794400'
p1982
sS'NR_040117'
p1983
S'339275857'
p1984
sS'XR_425217'
p1985
S'578794403'
p1986
sS'XR_425588'
p1987
S'578794925'
p1988
sS'XR_425589'
p1989
S'578794926'
p1990
sS'XR_425585'
p1991
S'578794922'
p1992
sS'XR_425586'
p1993
S'578794923'
p1994
sS'XR_425587'
p1995
S'578794924'
p1996
sS'XR_425580'
p1997
S'578794914'
p1998
sS'XR_425581'
p1999
S'578794916'
p2000
sS'XR_425582'
p2001
S'578794917'
p2002
sS'XR_425583'
p2003
S'578794919'
p2004
sS'XR_425760'
p2005
S'578795194'
p2006
sS'XR_425761'
p2007
S'578795195'
p2008
sS'XR_425762'
p2009
S'578795198'
p2010
sS'XR_425763'
p2011
S'578795199'
p2012
sS'XR_425764'
p2013
S'578795200'
p2014
sS'XR_425765'
p2015
S'578795202'
p2016
sS'XR_425766'
p2017
S'578795203'
p2018
sS'XR_425767'
p2019
S'578795204'
p2020
sS'XR_425768'
p2021
S'578795205'
p2022
sS'XR_425769'
p2023
S'578795206'
p2024
sS'XM_005275953'
p2025
S'578795077'
p2026
sS'XM_005275955'
p2027
S'578795089'
p2028
sS'XM_005275954'
p2029
S'578795078'
p2030
sS'XM_005275957'
p2031
S'578795092'
p2032
sS'XM_005275956'
p2033
S'578795091'
p2034
sS'XM_006710079'
p2035
S'578794414'
p2036
sS'XM_006710078'
p2037
S'578794412'
p2038
sS'XM_006710073'
p2039
S'578794282'
p2040
sS'XM_006710077'
p2041
S'578794410'
p2042
sS'NR_024389'
p2043
S'211971077'
p2044
sS'XM_006710075'
p2045
S'578794362'
p2046
sS'XM_006710074'
p2047
S'578794239'
p2048
sS'XR_425166'
p2049
S'578794330'
p2050
sS'XR_425167'
p2051
S'578794331'
p2052
sS'XR_425164'
p2053
S'578794328'
p2054
sS'XR_425165'
p2055
S'578794329'
p2056
sS'XR_425162'
p2057
S'578794326'
p2058
sS'XR_425163'
p2059
S'578794327'
p2060
sS'XR_425161'
p2061
S'578794325'
p2062
sS'XR_425168'
p2063
S'578794332'
p2064
sS'XR_425169'
p2065
S'578794335'
p2066
sS'XR_112631'
p2067
S'310114606'
p2068
sS'XR_133201'
p2069
S'530356920'
p2070
sS'XR_425535'
p2071
S'578794838'
p2072
sS'XR_425018'
p2073
S'578794248'
p2074
sS'XR_425019'
p2075
S'578794249'
p2076
sS'XR_425012'
p2077
S'578794431'
p2078
sS'XR_425013'
p2079
S'578794432'
p2080
sS'XR_425010'
p2081
S'578794429'
p2082
sS'XR_425011'
p2083
S'578794430'
p2084
sS'XR_425017'
p2085
S'578794247'
p2086
sS'XR_425014'
p2087
S'578794433'
p2088
sS'XR_425015'
p2089
S'578794244'
p2090
sS'XR_425196'
p2091
S'578794368'
p2092
sS'XR_112700'
p2093
S'530358407'
p2094
sS'XR_425195'
p2095
S'578794365'
p2096
sS'XR_425666'
p2097
S'578795044'
p2098
sS'XR_425661'
p2099
S'578795038'
p2100
sS'XR_425660'
p2101
S'578795037'
p2102
sS'XR_249138'
p2103
S'530357666'
p2104
sS'XR_249137'
p2105
S'530357665'
p2106
sS'XR_425662'
p2107
S'578795039'
p2108
sS'XR_249131'
p2109
S'578794625'
p2110
sS'XR_249130'
p2111
S'578794621'
p2112
sS'XR_249133'
p2113
S'530357657'
p2114
sS'XR_249132'
p2115
S'578794628'
p2116
sS'XR_425742'
p2117
S'578795157'
p2118
sS'XR_425215'
p2119
S'578794401'
p2120
sS'XR_425216'
p2121
S'578794402'
p2122
sS'XR_248629'
p2123
S'578794451'
p2124
sS'XR_425746'
p2125
S'578795165'
p2126
sS'XR_248627'
p2127
S'530356943'
p2128
sS'XR_248625'
p2129
S'530356939'
p2130
sS'XR_425744'
p2131
S'578795162'
p2132
sS'XR_425745'
p2133
S'578795163'
p2134
sS'XR_249683'
p2135
S'530358394'
p2136
sS'NR_015433'
p2137
S'256355083'
p2138
sS'XR_249680'
p2139
S'578795229'
p2140
sS'XR_249687'
p2141
S'530358399'
p2142
sS'XR_249686'
p2143
S'530358398'
p2144
sS'NR_038877'
p2145
S'336455057'
p2146
sS'XR_249689'
p2147
S'530358401'
p2148
sS'XR_249669'
p2149
S'530358376'
p2150
sS'XR_249668'
p2151
S'530358375'
p2152
sS'XR_249660'
p2153
S'530358367'
p2154
sS'XR_249667'
p2155
S'530358374'
p2156
sS'XM_001721827'
p2157
S'530357831'
p2158
sS'NR_034032'
p2159
S'300360527'
p2160
sS'XR_249597'
p2161
S'530358294'
p2162
sS'XR_249596'
p2163
S'530358293'
p2164
sS'XR_249595'
p2165
S'578795143'
p2166
sS'XR_249593'
p2167
S'530358290'
p2168
sS'XR_249260'
p2169
S'530357846'
p2170
sS'XR_249263'
p2171
S'530357850'
p2172
sS'XR_249269'
p2173
S'530357856'
p2174
sS'XR_249268'
p2175
S'530357855'
p2176
sS'XR_249599'
p2177
S'530358296'
p2178
sS'XR_249598'
p2179
S'578795145'
p2180
sS'XR_249468'
p2181
S'530358117'
p2182
sS'XR_249462'
p2183
S'530358107'
p2184
sS'XR_249461'
p2185
S'578794978'
p2186
sS'XR_249460'
p2187
S'530358105'
p2188
sS'XR_249467'
p2189
S'578794994'
p2190
sS'XR_249466'
p2191
S'530358115'
p2192
sS'XR_249465'
p2193
S'530358114'
p2194
sS'XR_249464'
p2195
S'530358113'
p2196
sS'XR_159429'
p2197
S'530358232'
p2198
sS'XM_003403715'
p2199
S'578794540'
p2200
sS'NR_026792'
p2201
S'223468635'
p2202
sS'XR_248743'
p2203
S'530357091'
p2204
sS'XR_248880'
p2205
S'530357278'
p2206
sS'XR_425570'
p2207
S'578794899'
p2208
sS'XR_425573'
p2209
S'578794904'
p2210
sS'XR_425572'
p2211
S'578794901'
p2212
sS'XR_425575'
p2213
S'578794908'
p2214
sS'XR_425574'
p2215
S'578794906'
p2216
sS'XR_425577'
p2217
S'578794910'
p2218
sS'XR_425576'
p2219
S'578794909'
p2220
sS'XR_425579'
p2221
S'578794913'
p2222
sS'XR_425578'
p2223
S'578794911'
p2224
sS'NM_001282442'
p2225
S'540344510'
p2226
sS'XR_159331'
p2227
S'397137974'
p2228
sS'XR_112557'
p2229
S'310114503'
p2230
sS'XR_425715'
p2231
S'578795118'
p2232
sS'XR_425714'
p2233
S'578795117'
p2234
sS'XR_425717'
p2235
S'578795120'
p2236
sS'XR_425716'
p2237
S'578795119'
p2238
sS'XR_425711'
p2239
S'578795114'
p2240
sS'XR_425710'
p2241
S'578795113'
p2242
sS'XR_425713'
p2243
S'578795116'
p2244
sS'XR_425712'
p2245
S'578795115'
p2246
sS'NR_036557'
p2247
S'304376267'
p2248
sS'XR_425719'
p2249
S'578795122'
p2250
sS'XR_425718'
p2251
S'578795121'
p2252
sS'XR_425485'
p2253
S'578794769'
p2254
sS'XR_425484'
p2255
S'578794768'
p2256
sS'XR_425487'
p2257
S'578794772'
p2258
sS'XR_425486'
p2259
S'578794770'
p2260
sS'XR_425481'
p2261
S'578794764'
p2262
sS'XR_425480'
p2263
S'578794763'
p2264
sS'XR_425483'
p2265
S'578794767'
p2266
sS'XR_425482'
p2267
S'578794765'
p2268
sS'XR_425489'
p2269
S'578794775'
p2270
sS'XR_425488'
p2271
S'578794773'
p2272
sS'NR_077241'
p2273
S'454609669'
p2274
sS'NR_002826'
p2275
S'215272311'
p2276
sS'XR_425373'
p2277
S'578794587'
p2278
sS'XR_425800'
p2279
S'578795246'
p2280
sS'XR_425371'
p2281
S'578794585'
p2282
sS'XR_425370'
p2283
S'578794584'
p2284
sS'XR_425375'
p2285
S'578794589'
p2286
sS'XR_425374'
p2287
S'578794588'
p2288
sS'XR_425379'
p2289
S'578794594'
p2290
sS'XR_425378'
p2291
S'578794593'
p2292
sS'XR_425629'
p2293
S'578794991'
p2294
sS'XR_425628'
p2295
S'578794990'
p2296
sS'XR_425159'
p2297
S'578794323'
p2298
sS'XR_425158'
p2299
S'578794322'
p2300
sS'XR_425621'
p2301
S'578794983'
p2302
sS'XR_425152'
p2303
S'578794314'
p2304
sS'XR_425623'
p2305
S'578794985'
p2306
sS'XR_425622'
p2307
S'578794984'
p2308
sS'XR_425157'
p2309
S'578794321'
p2310
sS'XR_425156'
p2311
S'578794320'
p2312
sS'XR_425155'
p2313
S'578794319'
p2314
sS'XR_425154'
p2315
S'578794318'
p2316
sS'XR_425399'
p2317
S'578794622'
p2318
sS'XR_425398'
p2319
S'578794618'
p2320
sS'XR_425391'
p2321
S'578794611'
p2322
sS'XR_425390'
p2323
S'578794610'
p2324
sS'XR_425393'
p2325
S'578794613'
p2326
sS'XR_425392'
p2327
S'578794612'
p2328
sS'XR_425395'
p2329
S'578794615'
p2330
sS'XR_425394'
p2331
S'578794614'
p2332
sS'XR_425397'
p2333
S'578794617'
p2334
sS'XR_425396'
p2335
S'578794616'
p2336
sS'XR_249684'
p2337
S'578795236'
p2338
sS'XR_248719'
p2339
S'530357061'
p2340
sS'XR_425029'
p2341
S'578794439'
p2342
sS'XR_425028'
p2343
S'578794438'
p2344
sS'XR_425027'
p2345
S'578794437'
p2346
sS'XR_425026'
p2347
S'578794436'
p2348
sS'XR_425025'
p2349
S'578794435'
p2350
sS'XR_425024'
p2351
S'578794434'
p2352
sS'XR_425023'
p2353
S'578794257'
p2354
sS'XR_425022'
p2355
S'578794256'
p2356
sS'XR_425021'
p2357
S'578794255'
p2358
sS'XR_425020'
p2359
S'578794250'
p2360
sS'XR_112580'
p2361
S'530358197'
p2362
sS'NR_103769'
p2363
S'515871354'
p2364
sS'NR_103768'
p2365
S'514961976'
p2366
sS'NR_024492'
p2367
S'213688368'
p2368
sS'NR_024491'
p2369
S'213513106'
p2370
sS'XR_249128'
p2371
S'578794620'
p2372
sS'XR_249129'
p2373
S'530357652'
p2374
sS'XR_249126'
p2375
S'530357648'
p2376
sS'XR_249127'
p2377
S'578794619'
p2378
sS'XR_249124'
p2379
S'530357646'
p2380
sS'XR_249122'
p2381
S'530357644'
p2382
sS'XR_249120'
p2383
S'530357642'
p2384
sS'XR_112629'
p2385
S'578795128'
p2386
sS'XR_248619'
p2387
S'530356933'
p2388
sS'XR_248618'
p2389
S'530356932'
p2390
sS'XR_248617'
p2391
S'530356931'
p2392
sS'XR_248615'
p2393
S'578794441'
p2394
sS'XR_248610'
p2395
S'530356922'
p2396
sS'NR_028328'
p2397
S'256017146'
p2398
sS'XR_249694'
p2399
S'530358406'
p2400
sS'NR_015421'
p2401
S'211971086'
p2402
sS'XR_249693'
p2403
S'530358405'
p2404
sS'XR_249672'
p2405
S'530358379'
p2406
sS'XR_249670'
p2407
S'578795222'
p2408
sS'XR_249671'
p2409
S'530358378'
p2410
sS'XR_249677'
p2411
S'578795227'
p2412
sS'XR_249674'
p2413
S'530358381'
p2414
sS'XR_249588'
p2415
S'578795135'
p2416
sS'XR_249580'
p2417
S'578795127'
p2418
sS'XR_249581'
p2419
S'578795130'
p2420
sS'XR_249584'
p2421
S'530358278'
p2422
sS'XR_249587'
p2423
S'530358281'
p2424
sS'XR_249276'
p2425
S'578794797'
p2426
sS'XR_249277'
p2427
S'578794799'
p2428
sS'XR_249274'
p2429
S'530357861'
p2430
sS'XR_249275'
p2431
S'578794798'
p2432
sS'XR_249273'
p2433
S'530357860'
p2434
sS'XM_003960901'
p2435
S'410170013'
p2436
sS'XR_249278'
p2437
S'578794801'
p2438
sS'XR_249279'
p2439
S'578794800'
p2440
sS'NR_026656'
p2441
S'221139753'
p2442
sS'NR_026659'
p2443
S'221219005'
p2444
sS'NR_037631'
p2445
S'313760605'
p2446
sS'XR_249479'
p2447
S'578795016'
p2448
sS'XR_249477'
p2449
S'530358132'
p2450
sS'XR_249470'
p2451
S'530358119'
p2452
sS'NR_003682'
p2453
S'154759243'
p2454
sS'NR_104170'
p2455
S'539849146'
p2456
sS'NR_037701'
p2457
S'318065125'
p2458
sS'XR_425562'
p2459
S'578794890'
p2460
sS'XR_425563'
p2461
S'578794891'
p2462
sS'XR_425560'
p2463
S'578794887'
p2464
sS'XR_425561'
p2465
S'578794888'
p2466
sS'XR_425566'
p2467
S'578794894'
p2468
sS'XR_425567'
p2469
S'578794895'
p2470
sS'XR_425564'
p2471
S'578794892'
p2472
sS'XR_425565'
p2473
S'578794893'
p2474
sS'NR_027322'
p2475
S'224809580'
p2476
sS'XR_425569'
p2477
S'578794898'
p2478
sS'XR_159323'
p2479
S'530356927'
p2480
sS'XR_249592'
p2481
S'530358289'
p2482
sS'XR_425706'
p2483
S'578795107'
p2484
sS'XR_425707'
p2485
S'578795108'
p2486
sS'XR_425704'
p2487
S'578795105'
p2488
sS'XR_425705'
p2489
S'578795106'
p2490
sS'XR_425702'
p2491
S'578795101'
p2492
sS'XR_425703'
p2493
S'578795103'
p2494
sS'XR_425700'
p2495
S'578795095'
p2496
sS'XR_425701'
p2497
S'578795096'
p2498
sS'XR_425708'
p2499
S'578795109'
p2500
sS'XR_425709'
p2501
S'578795110'
p2502
sS'XR_425496'
p2503
S'578794782'
p2504
sS'XR_425497'
p2505
S'578794783'
p2506
sS'XR_425494'
p2507
S'578794780'
p2508
sS'XR_425495'
p2509
S'578794781'
p2510
sS'XR_425492'
p2511
S'578794778'
p2512
sS'XR_425490'
p2513
S'578794776'
p2514
sS'XR_249343'
p2515
S'530357952'
p2516
sS'XR_425498'
p2517
S'578794784'
p2518
sS'XR_425499'
p2519
S'578794785'
p2520
sS'XR_249341'
p2521
S'578794875'
p2522
sS'XR_425364'
p2523
S'578794578'
p2524
sS'XR_425365'
p2525
S'578794579'
p2526
sS'XR_425366'
p2527
S'578794580'
p2528
sS'XR_425367'
p2529
S'578794581'
p2530
sS'XR_425360'
p2531
S'578794573'
p2532
sS'XR_425361'
p2533
S'578794574'
p2534
sS'XR_425362'
p2535
S'578794576'
p2536
sS'XR_425363'
p2537
S'578794577'
p2538
sS'XM_005275882'
p2539
S'530357204'
p2540
sS'XR_425368'
p2541
S'578794582'
p2542
sS'XR_425369'
p2543
S'578794583'
p2544
sS'XR_425638'
p2545
S'578795010'
p2546
sS'XR_425639'
p2547
S'578795011'
p2548
sS'XR_425148'
p2549
S'578794308'
p2550
sS'XR_425149'
p2551
S'578794309'
p2552
sS'XR_425144'
p2553
S'578794304'
p2554
sS'XR_425633'
p2555
S'578794996'
p2556
sS'XR_425630'
p2557
S'578794992'
p2558
sS'XR_425631'
p2559
S'578794993'
p2560
sS'XR_425636'
p2561
S'578795008'
p2562
sS'XR_425637'
p2563
S'578795009'
p2564
sS'XR_425634'
p2565
S'578794999'
p2566
sS'XR_425635'
p2567
S'578795007'
p2568
sS'XR_425388'
p2569
S'578794608'
p2570
sS'XR_425389'
p2571
S'578794609'
p2572
sS'XR_425382'
p2573
S'578794597'
p2574
sS'XR_425383'
p2575
S'578794598'
p2576
sS'XR_425380'
p2577
S'578794595'
p2578
sS'XR_425381'
p2579
S'578794596'
p2580
sS'XR_425386'
p2581
S'578794603'
p2582
sS'XR_425387'
p2583
S'578794604'
p2584
sS'XR_425384'
p2585
S'578794601'
p2586
sS'XR_425385'
p2587
S'578794602'
p2588
sS'XR_112091'
p2589
S'530357221'
p2590
sS'XR_425030'
p2591
S'578794440'
p2592
sS'XR_425031'
p2593
S'578794442'
p2594
sS'XR_425032'
p2595
S'578794443'
p2596
sS'XR_425033'
p2597
S'578794444'
p2598
sS'XR_425034'
p2599
S'578794447'
p2600
sS'XR_425035'
p2601
S'578794448'
p2602
sS'XR_425036'
p2603
S'578794449'
p2604
sS'XR_425037'
p2605
S'578794450'
p2606
sS'XR_425038'
p2607
S'578794452'
p2608
sS'XR_425039'
p2609
S'578794453'
p2610
sS'NR_103794'
p2611
S'518836396'
p2612
sS'XR_112272'
p2613
S'530357569'
p2614
sS'NM_016275'
p2615
S'42789379'
p2616
sS'NR_103775'
p2617
S'515871371'
p2618
sS'XR_172461'
p2619
S'530357994'
p2620
sS'XR_249111'
p2621
S'530357632'
p2622
sS'XR_172464'
p2623
S'578794981'
p2624
sS'XR_249116'
p2625
S'578794606'
p2626
sS'XR_249115'
p2627
S'578794605'
p2628
sS'XR_249118'
p2629
S'530357640'
p2630
sS'XR_248603'
p2631
S'530356905'
p2632
sS'XR_248609'
p2633
S'578794246'
p2634
sS'NR_028335'
p2635
S'256017194'
p2636
sS'NR_109897'
p2637
S'568215761'
p2638
sS'XR_249066'
p2639
S'530357572'
p2640
sS'XR_249065'
p2641
S'530357568'
p2642
sS'XR_249064'
p2643
S'530357567'
p2644
sS'XR_249063'
p2645
S'530357566'
p2646
sS'XR_249069'
p2647
S'578794561'
p2648
sS'XR_249647'
p2649
S'578795201'
p2650
sS'NR_047550'
p2651
S'383792162'
p2652
sS'XR_249645'
p2653
S'530358351'
p2654
sS'XR_249644'
p2655
S'530358348'
p2656
sS'XR_249643'
p2657
S'530358347'
p2658
sS'XR_249641'
p2659
S'578795190'
p2660
sS'XR_249249'
p2661
S'530357835'
p2662
sS'XR_249243'
p2663
S'578794774'
p2664
sS'XR_249242'
p2665
S'578794771'
p2666
sS'XR_249240'
p2667
S'578794766'
p2668
sS'XR_249247'
p2669
S'530357833'
p2670
sS'XR_249246'
p2671
S'530357832'
p2672
sS'NR_024264'
p2673
S'209977058'
p2674
sS'NR_037629'
p2675
S'313760527'
p2676
sS'XR_249481'
p2677
S'530358137'
p2678
sS'XR_249480'
p2679
S'578795017'
p2680
sS'XR_249483'
p2681
S'530358139'
p2682
sS'XR_249485'
p2683
S'578795025'
p2684
sS'XR_425557'
p2685
S'578794882'
p2686
sS'XR_425556'
p2687
S'578794881'
p2688
sS'XR_425555'
p2689
S'578794880'
p2690
sS'XR_425554'
p2691
S'578794879'
p2692
sS'XR_425553'
p2693
S'578794878'
p2694
sS'XR_425552'
p2695
S'578794877'
p2696
sS'XR_425551'
p2697
S'578794872'
p2698
sS'XR_425550'
p2699
S'578794867'
p2700
sS'XR_425559'
p2701
S'578794886'
p2702
sS'XR_425558'
p2703
S'578794883'
p2704
sS'NR_037885'
p2705
S'365733598'
p2706
sS'XR_249631'
p2707
S'578795180'
p2708
sS'XR_425609'
p2709
S'578794961'
p2710
sS'XR_425608'
p2711
S'578794959'
p2712
sS'XR_425607'
p2713
S'578794958'
p2714
sS'XR_425606'
p2715
S'578794956'
p2716
sS'XR_425605'
p2717
S'578794955'
p2718
sS'XR_425604'
p2719
S'578794954'
p2720
sS'XR_425603'
p2721
S'578794952'
p2722
sS'XR_425602'
p2723
S'578794951'
p2724
sS'XR_425601'
p2725
S'578794944'
p2726
sS'XR_425600'
p2727
S'578794943'
p2728
sS'XM_005275858'
p2729
S'530356902'
p2730
sS'XR_425739'
p2731
S'578795154'
p2732
sS'XR_425738'
p2733
S'578795153'
p2734
sS'NM_001207030'
p2735
S'333360892'
p2736
sS'XR_425733'
p2737
S'578795144'
p2738
sS'XR_425732'
p2739
S'578795142'
p2740
sS'XR_425731'
p2741
S'578795141'
p2742
sS'XR_425730'
p2743
S'578795138'
p2744
sS'XR_425737'
p2745
S'578795152'
p2746
sS'XR_425736'
p2747
S'578795148'
p2748
sS'XR_425735'
p2749
S'578795147'
p2750
sS'XR_425734'
p2751
S'578795146'
p2752
s.